Certificate:
    Data:
        Version: 3 (0x2)
        Serial Number: 1 (0x1)
        Signature Algorithm: sha256WithRSAEncryption
        Issuer: C=FI, ST=Pohjois-Pohjanmaa, L=Oulu, O=University of Oulu, OU=OUSPG, CN=Secredas Test/emailAddress=jari.jaaskela@oulu.fi
        Validity
            Not Before: Jun 11 18:34:35 2020 GMT
            Not After : Mar 26 18:34:35 2294 GMT
        Subject: CN=test
        Subject Public Key Info:
            Public Key Algorithm: id-ecPublicKey
                Public-Key: (256 bit)
                pub:
                    04:aa:8a:9c:21:a9:7f:43:bf:12:0b:70:85:24:00:
                    af:e7:84:a7:6d:f0:ae:8c:83:2f:9e:0d:22:cc:84:
                    01:6e:48:9c:81:01:3d:bd:54:54:8b:2a:7b:cc:3c:
                    61:ae:c7:34:73:a0:c1:71:f6:c7:b5:76:b4:67:92:
                    b6:9a:20:56:02
                ASN1 OID: prime256v1
                NIST CURVE: P-256
        X509v3 extensions:
            X509v3 Subject Key Identifier: 
                E7:17:43:93:C1:C5:95:7B:65:0C:74:B0:C9:14:FF:6D:0C:FE:D8:39
            X509v3 Authority Key Identifier: 
                keyid:EF:0E:C7:AE:20:A3:B5:76:05:32:E3:BD:E1:03:E8:A0:6B:60:7E:7C

            X509v3 Basic Constraints: 
                CA:FALSE
            X509v3 Key Usage: 
                Digital Signature, Key Encipherment
    Signature Algorithm: sha256WithRSAEncryption
         35:7b:40:e0:32:bb:8e:45:5f:0b:a1:c1:46:d9:d5:a6:09:f5:
         ae:f7:ba:29:69:fa:16:b8:66:91:45:f9:54:55:4b:11:d0:25:
         08:db:be:3e:2a:f5:b5:a9:b7:88:39:06:2e:46:fd:4e:4c:1b:
         29:76:72:72:72:85:4c:14:71:ae:32:c0:da:09:ff:4d:19:66:
         91:10:df:63:f0:cb:76:65:35:7b:fd:fd:0d:5d:42:4d:6f:7d:
         63:42:51:0f:d5:f3:28:3d:da:7f:56:3d:1a:d5:d5:4c:aa:21:
         a7:65:42:37:3d:73:4a:df:ab:83:24:97:17:4b:b5:9a:51:54:
         2f:89:8b:83:8f:bc:f1:b3:8e:e3:a6:4f:f7:bd:ba:a3:3b:8a:
         c1:85:83:22:74:83:29:16:d1:b9:f0:ef:4c:6d:8c:bb:2d:b0:
         3d:a1:1b:0f:d1:de:5e:41:94:34:12:2a:47:74:08:b9:d3:b8:
         49:b6:9c:aa:94:5f:70:2c:9c:3d:ad:8f:e0:60:22:9b:94:20:
         6b:fb:46:d6:1c:d1:42:95:cb:02:52:07:50:94:19:78:a7:a2:
         c4:df:d2:cf:69:97:df:b9:76:b6:d1:99:af:18:ee:30:6b:b1:
         0b:af:2f:d1:54:e7:66:09:4d:0b:9e:0f:b0:e8:e4:45:79:02:
         5b:20:ec:41:d8:f2:fd:64:4a:c0:62:f0:2b:49:6a:19:36:a1:
         61:d2:c7:cf:77:ad:e2:88:8b:cd:6b:79:9e:2f:3f:9b:9f:f8:
         ea:43:70:41:da:0d:5d:c1:3f:b0:2c:34:b8:ad:c0:b6:97:c4:
         1f:c6:1b:7e:d2:e4:46:68:20:e1:ca:8c:31:8d:49:ed:f5:3a:
         1e:91:bb:28:27:9f:bc:c5:bf:8b:8d:54:55:03:a0:4c:cb:f6:
         7b:87:4f:c6:f8:3b:f5:15:79:f7:f1:49:b7:3f:c5:c4:cd:96:
         5b:4b:e3:d9:b2:b3:d9:da:eb:b2:dd:fb:4b:9c:98:a2:0d:80:
         c4:5f:2b:fa:d0:e3:79:83:fb:29:a0:da:1b:7c:ef:97:ed:bf:
         78:6d:3e:48:47:c1:d1:d9:5a:45:bb:0d:ed:85:0a:62:20:4b:
         b4:40:73:df:a1:b7:32:4a:1d:87:0c:6c:e1:4e:36:41:d0:89:
         07:fc:b1:c1:e2:9a:23:44:f1:66:32:a6:e1:0d:8d:a1:e9:8c:
         cd:7f:78:7d:e7:0b:ff:18:6a:5e:c6:df:9b:a2:e2:76:30:b2:
         c1:a6:8a:e0:02:83:f3:a9:02:b8:d5:08:9b:a8:d4:ad:31:03:
         32:6e:86:40:9d:20:49:9f:d3:a9:4d:e9:0b:3a:c2:f4:36:7b:
         71:c1:d7:59:bb:3a:7c:33
-----BEGIN CERTIFICATE-----
MIIDvzCCAaegAwIBAgIBATANBgkqhkiG9w0BAQsFADCBozELMAkGA1UEBhMCRkkx
GjAYBgNVBAgMEVBvaGpvaXMtUG9oamFubWFhMQ0wCwYDVQQHDARPdWx1MRswGQYD
VQQKDBJVbml2ZXJzaXR5IG9mIE91bHUxDjAMBgNVBAsMBU9VU1BHMRYwFAYDVQQD
DA1TZWNyZWRhcyBUZXN0MSQwIgYJKoZIhvcNAQkBFhVqYXJpLmphYXNrZWxhQG91
bHUuZmkwIBcNMjAwNjExMTgzNDM1WhgPMjI5NDAzMjYxODM0MzVaMA8xDTALBgNV
BAMMBHRlc3QwWTATBgcqhkjOPQIBBggqhkjOPQMBBwNCAASqipwhqX9DvxILcIUk
AK/nhKdt8K6Mgy+eDSLMhAFuSJyBAT29VFSLKnvMPGGuxzRzoMFx9se1drRnkraa
IFYCo1owWDAdBgNVHQ4EFgQU5xdDk8HFlXtlDHSwyRT/bQz+2DkwHwYDVR0jBBgw
FoAU7w7HriCjtXYFMuO94QPooGtgfnwwCQYDVR0TBAIwADALBgNVHQ8EBAMCBaAw
DQYJKoZIhvcNAQELBQADggIBADV7QOAyu45FXwuhwUbZ1aYJ9a73uilp+ha4ZpFF
+VRVSxHQJQjbvj4q9bWpt4g5Bi5G/U5MGyl2cnJyhUwUca4ywNoJ/00ZZpEQ32Pw
y3ZlNXv9/Q1dQk1vfWNCUQ/V8yg92n9WPRrV1UyqIadlQjc9c0rfq4MklxdLtZpR
VC+Ji4OPvPGzjuOmT/e9uqM7isGFgyJ0gykW0bnw70xtjLstsD2hGw/R3l5BlDQS
Kkd0CLnTuEm2nKqUX3AsnD2tj+BgIpuUIGv7RtYc0UKVywJSB1CUGXinosTf0s9p
l9+5drbRma8Y7jBrsQuvL9FU52YJTQueD7Do5EV5Alsg7EHY8v1kSsBi8CtJahk2
oWHSx893reKIi81reZ4vP5uf+OpDcEHaDV3BP7AsNLitwLaXxB/GG37S5EZoIOHK
jDGNSe31Oh6Ruygnn7zFv4uNVFUDoEzL9nuHT8b4O/UVeffxSbc/xcTNlltL49my
s9na67Ld+0ucmKINgMRfK/rQ43mD+ymg2ht875ftv3htPkhHwdHZWkW7De2FCmIg
S7RAc9+htzJKHYcMbOFONkHQiQf8scHimiNE8WYypuENjaHpjM1/eH3nC/8Yal7G
35ui4nYwssGmiuACg/OpArjVCJuo1K0xAzJuhkCdIEmf06lN6Qs6wvQ2e3HB11m7
Onwz
-----END CERTIFICATE-----
