Certificate:
    Data:
        Version: 3 (0x2)
        Serial Number: 2 (0x2)
    Signature Algorithm: sha256WithRSAEncryption
        Issuer: C=FI, ST=Pohjois-Pohjanmaa, L=Oulu, O=University of Oulu, OU=OUSPG, CN=Secredas Test/emailAddress=jari.jaaskela@oulu.fi
        Validity
            Not Before: Jul  3 09:32:34 2020 GMT
            Not After : Apr 17 09:32:34 2294 GMT
        Subject: CN=test
        Subject Public Key Info:
            Public Key Algorithm: id-ecPublicKey
                Public-Key: (256 bit)
                pub: 
                    04:ac:fa:e1:27:91:1b:7b:35:bb:0e:8a:6d:2e:03:
                    11:0b:fc:3a:c8:f0:90:e6:84:da:d6:d4:08:56:74:
                    ff:67:af:f1:92:77:1e:d0:f6:81:9e:66:1d:85:6c:
                    75:af:69:8d:71:b3:64:bc:53:ee:6b:20:cc:e1:51:
                    a8:68:93:59:24
                ASN1 OID: prime256v1
                NIST CURVE: P-256
        X509v3 extensions:
            X509v3 Subject Key Identifier: 
                79:63:3D:ED:2C:8A:70:59:8F:31:7B:91:49:33:FC:CA:07:F6:B8:29
            X509v3 Authority Key Identifier: 
                keyid:EF:0E:C7:AE:20:A3:B5:76:05:32:E3:BD:E1:03:E8:A0:6B:60:7E:7C

            X509v3 Basic Constraints: 
                CA:FALSE
            X509v3 Key Usage: 
                Digital Signature, Key Encipherment
    Signature Algorithm: sha256WithRSAEncryption
         ad:29:b6:e2:a7:41:73:b3:85:d0:85:c6:af:86:1a:47:b5:0b:
         7b:d0:d2:b0:9e:24:2b:84:0c:52:b2:1d:c6:49:91:47:da:bd:
         f7:25:f9:e6:1a:6e:a0:e7:00:a9:65:0d:3d:69:ee:c1:dd:f1:
         b5:7e:14:9b:11:aa:33:bc:3e:94:a7:6a:3b:6d:18:b2:c6:15:
         84:6b:07:d6:f3:7b:90:dc:0f:6e:58:c8:3a:6c:e3:9f:6b:38:
         6c:f4:1d:b8:7c:5f:89:86:4d:3b:0d:fa:f7:ec:e9:d5:de:47:
         88:fb:66:06:a5:d5:57:d4:19:20:36:ab:30:a7:71:3a:b6:d6:
         dc:d9:a3:28:d0:0b:fc:81:51:ac:1f:97:1b:bd:a3:97:a7:6e:
         db:4c:d6:ca:f1:46:38:b2:d3:64:14:bd:43:fc:c2:f5:12:71:
         6b:9e:dd:5a:16:67:92:d4:f7:8b:81:5a:2d:77:aa:cc:2b:2f:
         3d:32:7a:aa:ba:1c:d5:d3:26:09:f5:59:41:f4:57:0f:bc:ea:
         6c:cb:b2:b4:70:1a:1a:82:e6:a1:d3:75:8b:11:63:54:9e:01:
         2c:74:00:63:ce:c1:18:3f:9f:b9:8f:42:3d:83:1c:1a:d8:2f:
         42:ba:d4:95:29:10:ea:d0:1c:8d:e0:34:94:cc:02:81:60:89:
         81:23:49:d9:1f:24:2c:26:57:50:e2:28:1a:c3:7a:78:38:89:
         13:60:ed:1d:80:81:06:9f:44:11:02:bf:ce:52:d3:8b:1c:3d:
         e0:40:f4:8e:6c:85:74:54:a3:ae:96:7f:b9:cf:33:71:2e:eb:
         75:cf:74:ac:c9:22:63:77:33:8d:16:8c:7f:a2:37:44:9d:8a:
         ec:0a:36:79:ed:d0:99:1b:67:a0:40:6e:fa:ae:53:a0:36:12:
         c6:08:1c:5a:12:08:7a:c0:e5:25:2c:47:c8:dc:f6:a1:6a:c0:
         dd:ac:5b:18:85:50:60:3c:68:59:ac:67:cf:43:51:cf:59:d9:
         f5:ad:ac:a0:d0:4e:61:5a:cb:46:b9:b4:30:90:4a:6c:52:d4:
         e7:dc:4f:2f:c3:ad:12:9b:ff:bb:83:50:59:43:bb:e6:53:d9:
         88:e2:88:ec:3b:fa:c7:c8:63:0e:cb:41:f9:dc:aa:8b:14:f9:
         d0:3c:cd:62:55:77:6f:93:ed:76:51:f0:23:13:0a:3f:1e:51:
         32:3a:3d:b1:ff:e1:82:23:02:77:d1:3d:d0:91:5c:1a:38:79:
         0c:ca:84:25:cb:a6:94:dc:91:c2:c6:0e:61:ee:bc:51:b9:e6:
         14:12:12:9a:37:ea:9b:bd:0f:32:b0:72:41:0a:18:ad:16:14:
         6b:3f:b5:7c:3e:a6:6c:87
-----BEGIN CERTIFICATE-----
MIIDvzCCAaegAwIBAgIBAjANBgkqhkiG9w0BAQsFADCBozELMAkGA1UEBhMCRkkx
GjAYBgNVBAgMEVBvaGpvaXMtUG9oamFubWFhMQ0wCwYDVQQHDARPdWx1MRswGQYD
VQQKDBJVbml2ZXJzaXR5IG9mIE91bHUxDjAMBgNVBAsMBU9VU1BHMRYwFAYDVQQD
DA1TZWNyZWRhcyBUZXN0MSQwIgYJKoZIhvcNAQkBFhVqYXJpLmphYXNrZWxhQG91
bHUuZmkwIBcNMjAwNzAzMDkzMjM0WhgPMjI5NDA0MTcwOTMyMzRaMA8xDTALBgNV
BAMMBHRlc3QwWTATBgcqhkjOPQIBBggqhkjOPQMBBwNCAASs+uEnkRt7NbsOim0u
AxEL/DrI8JDmhNrW1AhWdP9nr/GSdx7Q9oGeZh2FbHWvaY1xs2S8U+5rIMzhUaho
k1kko1owWDAdBgNVHQ4EFgQUeWM97SyKcFmPMXuRSTP8ygf2uCkwHwYDVR0jBBgw
FoAU7w7HriCjtXYFMuO94QPooGtgfnwwCQYDVR0TBAIwADALBgNVHQ8EBAMCBaAw
DQYJKoZIhvcNAQELBQADggIBAK0ptuKnQXOzhdCFxq+GGke1C3vQ0rCeJCuEDFKy
HcZJkUfavfcl+eYabqDnAKllDT1p7sHd8bV+FJsRqjO8PpSnajttGLLGFYRrB9bz
e5DcD25YyDps459rOGz0Hbh8X4mGTTsN+vfs6dXeR4j7Zgal1VfUGSA2qzCncTq2
1tzZoyjQC/yBUawflxu9o5enbttM1srxRjiy02QUvUP8wvUScWue3VoWZ5LU94uB
Wi13qswrLz0yeqq6HNXTJgn1WUH0Vw+86mzLsrRwGhqC5qHTdYsRY1SeASx0AGPO
wRg/n7mPQj2DHBrYL0K61JUpEOrQHI3gNJTMAoFgiYEjSdkfJCwmV1DiKBrDeng4
iRNg7R2AgQafRBECv85S04scPeBA9I5shXRUo66Wf7nPM3Eu63XPdKzJImN3M40W
jH+iN0SdiuwKNnnt0JkbZ6BAbvquU6A2EsYIHFoSCHrA5SUsR8jc9qFqwN2sWxiF
UGA8aFmsZ89DUc9Z2fWtrKDQTmFay0a5tDCQSmxS1OfcTy/DrRKb/7uDUFlDu+ZT
2YjiiOw7+sfIYw7LQfncqosU+dA8zWJVd2+T7XZR8CMTCj8eUTI6PbH/4YIjAnfR
PdCRXBo4eQzKhCXLppTckcLGDmHuvFG55hQSEpo36pu9DzKwckEKGK0WFGs/tXw+
pmyH
-----END CERTIFICATE-----
