Certificate:
    Data:
        Version: 3 (0x2)
        Serial Number: 3 (0x3)
    Signature Algorithm: sha256WithRSAEncryption
        Issuer: C=FI, ST=Pohjois-Pohjanmaa, L=Oulu, O=University of Oulu, OU=OUSPG, CN=Secredas Test/emailAddress=jari.jaaskela@oulu.fi
        Validity
            Not Before: Jul  3 09:33:32 2020 GMT
            Not After : Apr 17 09:33:32 2294 GMT
        Subject: CN=test
        Subject Public Key Info:
            Public Key Algorithm: id-ecPublicKey
                Public-Key: (256 bit)
                pub: 
                    04:b5:6e:c3:ed:8f:dc:4c:32:16:5c:62:31:c2:d4:
                    0f:d2:8e:69:52:2e:69:60:53:3e:9b:37:fa:6f:3e:
                    ad:ed:98:6c:bd:79:dc:b1:4a:41:9a:c7:6c:d4:6f:
                    e0:14:fd:73:98:79:13:65:5c:7d:2c:c1:99:ae:e9:
                    8d:31:dd:db:d7
                ASN1 OID: prime256v1
                NIST CURVE: P-256
        X509v3 extensions:
            X509v3 Subject Key Identifier: 
                96:4A:6C:0E:03:C3:DB:C9:65:82:73:1D:88:2C:85:FC:4A:11:61:B3
            X509v3 Authority Key Identifier: 
                keyid:EF:0E:C7:AE:20:A3:B5:76:05:32:E3:BD:E1:03:E8:A0:6B:60:7E:7C

            X509v3 Basic Constraints: 
                CA:FALSE
            X509v3 Key Usage: 
                Digital Signature, Key Encipherment
    Signature Algorithm: sha256WithRSAEncryption
         71:ac:ef:ec:c4:88:56:8c:25:af:9b:aa:65:90:83:de:f3:88:
         26:62:8f:28:2b:6b:38:b8:24:0b:5b:90:2b:dc:17:f5:3d:ea:
         b7:ed:8a:f2:c8:70:89:ae:85:35:bb:1e:f7:50:66:a0:0a:27:
         33:50:4f:67:4b:67:39:54:34:b7:61:f7:ad:01:4a:5e:bf:ba:
         31:0e:bb:47:2f:5f:6a:ce:8b:1c:3c:a1:4a:91:79:21:56:39:
         c5:8b:0e:bb:16:3d:d1:f4:34:58:0b:c9:58:72:3c:3e:45:94:
         57:d0:52:91:55:78:82:2c:52:25:1c:6c:40:48:08:fb:42:c2:
         57:c4:aa:6c:48:e0:fc:86:07:9f:1f:b8:90:83:ed:e2:bd:e5:
         a2:62:05:32:62:92:31:33:41:2a:57:f1:f1:2b:8d:dc:1a:44:
         07:bc:9e:e6:da:22:7b:4f:52:64:11:bb:bc:19:44:47:9b:67:
         30:4e:4e:73:19:37:4e:cd:17:19:1d:3c:c0:ee:b1:9c:ab:f3:
         46:19:9b:ef:7a:25:2d:64:61:f4:94:08:50:c2:76:d7:b2:bb:
         ba:df:3a:5a:f7:d8:a9:d7:d6:a6:3e:bc:9a:8d:b2:87:35:40:
         7d:5d:1c:4a:3b:96:58:fb:1b:a6:7b:40:49:3b:21:22:ab:aa:
         f5:23:6e:13:d7:b8:ec:55:cd:ea:76:73:78:2f:0c:f5:49:b9:
         63:ec:40:91:1f:aa:0f:0d:5a:2d:47:0d:0b:49:b5:47:33:ce:
         d6:28:9b:79:cc:b8:6b:fd:44:9d:3f:8f:65:49:cb:db:61:a4:
         be:a8:15:be:46:8f:2a:c5:cf:12:a9:02:4d:63:79:3b:d7:76:
         be:9c:a9:d6:be:4b:8c:5a:eb:96:a8:a3:a1:ac:4a:56:9f:11:
         cc:1e:99:a2:84:fb:01:2f:2d:bc:a2:2c:b8:3f:9b:b6:b6:9c:
         ce:b3:7b:f0:34:f9:ac:fd:b2:58:c7:93:d7:5d:06:78:2f:0c:
         25:b6:09:14:da:30:b0:b5:26:7f:8a:8f:dc:6a:65:d1:d3:fe:
         07:17:bd:4a:c2:29:3b:be:3c:65:08:b9:00:d7:bf:25:19:21:
         23:24:ca:0b:a6:b8:66:6e:d2:da:72:eb:05:b6:a9:40:67:e7:
         1e:49:74:d4:74:14:31:5e:0a:5a:8e:13:9b:39:d5:14:41:7e:
         53:9b:c0:0e:62:70:75:12:8c:54:cf:9e:63:a9:5e:d8:7c:89:
         86:84:71:8e:30:6c:09:08:92:ec:07:9e:29:d5:36:33:9b:22:
         d7:41:65:16:c2:5b:0c:c1:99:61:d6:39:35:14:20:89:4b:9a:
         25:e1:b3:61:1f:65:30:23
-----BEGIN CERTIFICATE-----
MIIDvzCCAaegAwIBAgIBAzANBgkqhkiG9w0BAQsFADCBozELMAkGA1UEBhMCRkkx
GjAYBgNVBAgMEVBvaGpvaXMtUG9oamFubWFhMQ0wCwYDVQQHDARPdWx1MRswGQYD
VQQKDBJVbml2ZXJzaXR5IG9mIE91bHUxDjAMBgNVBAsMBU9VU1BHMRYwFAYDVQQD
DA1TZWNyZWRhcyBUZXN0MSQwIgYJKoZIhvcNAQkBFhVqYXJpLmphYXNrZWxhQG91
bHUuZmkwIBcNMjAwNzAzMDkzMzMyWhgPMjI5NDA0MTcwOTMzMzJaMA8xDTALBgNV
BAMMBHRlc3QwWTATBgcqhkjOPQIBBggqhkjOPQMBBwNCAAS1bsPtj9xMMhZcYjHC
1A/SjmlSLmlgUz6bN/pvPq3tmGy9edyxSkGax2zUb+AU/XOYeRNlXH0swZmu6Y0x
3dvXo1owWDAdBgNVHQ4EFgQUlkpsDgPD28llgnMdiCyF/EoRYbMwHwYDVR0jBBgw
FoAU7w7HriCjtXYFMuO94QPooGtgfnwwCQYDVR0TBAIwADALBgNVHQ8EBAMCBaAw
DQYJKoZIhvcNAQELBQADggIBAHGs7+zEiFaMJa+bqmWQg97ziCZijygrazi4JAtb
kCvcF/U96rftivLIcImuhTW7HvdQZqAKJzNQT2dLZzlUNLdh960BSl6/ujEOu0cv
X2rOixw8oUqReSFWOcWLDrsWPdH0NFgLyVhyPD5FlFfQUpFVeIIsUiUcbEBICPtC
wlfEqmxI4PyGB58fuJCD7eK95aJiBTJikjEzQSpX8fErjdwaRAe8nubaIntPUmQR
u7wZREebZzBOTnMZN07NFxkdPMDusZyr80YZm+96JS1kYfSUCFDCdteyu7rfOlr3
2KnX1qY+vJqNsoc1QH1dHEo7llj7G6Z7QEk7ISKrqvUjbhPXuOxVzep2c3gvDPVJ
uWPsQJEfqg8NWi1HDQtJtUczztYom3nMuGv9RJ0/j2VJy9thpL6oFb5GjyrFzxKp
Ak1jeTvXdr6cqda+S4xa65aoo6GsSlafEcwemaKE+wEvLbyiLLg/m7a2nM6ze/A0
+az9sljHk9ddBngvDCW2CRTaMLC1Jn+Kj9xqZdHT/gcXvUrCKTu+PGUIuQDXvyUZ
ISMkygumuGZu0tpy6wW2qUBn5x5JdNR0FDFeClqOE5s51RRBflObwA5icHUSjFTP
nmOpXth8iYaEcY4wbAkIkuwHninVNjObItdBZRbCWwzBmWHWOTUUIIlLmiXhs2Ef
ZTAj
-----END CERTIFICATE-----
