Certificate:
    Data:
        Version: 3 (0x2)
        Serial Number: 4 (0x4)
    Signature Algorithm: sha256WithRSAEncryption
        Issuer: C=FI, ST=Pohjois-Pohjanmaa, L=Oulu, O=University of Oulu, OU=OUSPG, CN=Secredas Test/emailAddress=jari.jaaskela@oulu.fi
        Validity
            Not Before: Jul  3 09:35:44 2020 GMT
            Not After : Apr 17 09:35:44 2294 GMT
        Subject: CN=test
        Subject Public Key Info:
            Public Key Algorithm: id-ecPublicKey
                Public-Key: (256 bit)
                pub: 
                    04:09:28:e0:f6:76:50:3e:49:29:96:3d:3e:ed:77:
                    52:bc:50:e5:16:c3:d9:88:a4:df:4d:8c:2c:24:54:
                    2a:df:4e:ae:6e:56:5f:da:26:b8:94:66:8a:e8:33:
                    91:70:6e:7f:7d:05:2d:d5:de:5b:f3:5e:4c:69:39:
                    aa:e2:b6:17:91
                ASN1 OID: prime256v1
                NIST CURVE: P-256
        X509v3 extensions:
            X509v3 Subject Key Identifier: 
                DA:AB:A2:DC:10:F2:E2:EC:71:A4:8F:F9:67:5B:6E:20:73:7F:FA:05
            X509v3 Authority Key Identifier: 
                keyid:EF:0E:C7:AE:20:A3:B5:76:05:32:E3:BD:E1:03:E8:A0:6B:60:7E:7C

            X509v3 Basic Constraints: 
                CA:FALSE
            X509v3 Key Usage: 
                Digital Signature, Key Encipherment
    Signature Algorithm: sha256WithRSAEncryption
         48:92:85:51:ce:ab:9d:93:c3:28:bc:bd:59:9d:16:fd:db:20:
         6c:36:d8:d8:33:14:fd:5a:b4:e5:07:5d:8c:ef:6d:5c:5e:34:
         99:e3:e5:4b:09:25:09:6b:33:59:7d:8a:d2:9e:55:82:d3:d5:
         c8:f5:02:26:1a:8f:62:d0:f4:63:a5:a5:17:5b:36:be:47:e5:
         bb:a7:ee:40:86:00:6a:0b:67:27:57:3d:7f:89:ab:d0:48:6d:
         77:6e:54:d2:50:88:05:75:fc:6a:8c:41:a2:d4:59:f6:d3:72:
         73:9e:3e:8f:d5:3b:39:33:4e:3a:07:8b:a6:1d:70:a6:a2:f7:
         4d:b8:a7:21:15:61:fb:5a:0a:df:0f:be:00:12:2d:e7:4f:37:
         bf:8c:06:95:47:23:6c:b6:2f:74:35:af:20:e7:1a:a8:7c:13:
         1c:7a:8a:19:75:98:f8:4a:02:d5:c7:68:73:3d:6c:0d:7d:36:
         1e:83:a3:73:73:77:58:c5:33:e4:ef:f6:51:76:2a:58:4c:a1:
         03:d9:65:4e:c6:a3:d2:11:dd:b4:99:40:f5:f6:f9:b7:0c:4f:
         59:1b:36:6d:4c:c6:ae:e1:a9:e4:df:0f:96:78:47:f7:b5:bd:
         c6:37:4b:49:71:96:89:c3:e6:d4:27:61:3a:2a:bb:71:2b:ad:
         94:97:d3:7b:09:5e:a7:cc:cf:8d:89:04:d5:33:91:39:0f:38:
         10:16:65:ac:6d:53:ad:43:80:8b:03:f0:d3:7f:62:5a:33:19:
         b9:59:14:31:f4:b0:41:f9:e6:04:c7:48:6c:cd:8f:75:5e:6d:
         f7:8d:ac:99:b6:df:76:d4:94:b6:62:f7:9c:34:9e:02:db:09:
         4f:02:1a:f5:0c:3f:85:ba:92:c5:ce:93:d0:02:91:34:76:21:
         34:eb:0a:7d:bc:0f:e7:d1:51:eb:d6:7f:1b:6c:b4:bd:05:36:
         f8:eb:b5:c2:c8:8d:f2:2d:e9:26:ff:c2:fa:cc:ee:5e:f0:b2:
         20:93:d3:8b:27:4b:9c:77:d8:ae:a9:b5:86:af:8f:17:2f:0f:
         ec:86:b4:0b:a4:5b:f8:ca:1b:ed:16:39:f3:1c:15:46:e0:64:
         8f:82:82:af:83:3a:14:28:0b:62:41:07:0b:ec:08:88:da:bb:
         91:73:4c:ad:c5:e0:ef:b1:71:52:f8:bc:3a:bf:2d:42:a0:f5:
         75:0f:94:c4:eb:c6:47:b8:95:05:5c:13:8d:d5:08:95:8e:66:
         5c:f2:37:f9:64:ec:50:8d:24:0c:16:e6:3f:8c:74:12:54:db:
         78:a1:68:63:ac:1b:96:2e:e3:f6:63:00:43:3e:bc:a6:37:f0:
         56:96:2f:66:ea:0e:fd:ec
-----BEGIN CERTIFICATE-----
MIIDvzCCAaegAwIBAgIBBDANBgkqhkiG9w0BAQsFADCBozELMAkGA1UEBhMCRkkx
GjAYBgNVBAgMEVBvaGpvaXMtUG9oamFubWFhMQ0wCwYDVQQHDARPdWx1MRswGQYD
VQQKDBJVbml2ZXJzaXR5IG9mIE91bHUxDjAMBgNVBAsMBU9VU1BHMRYwFAYDVQQD
DA1TZWNyZWRhcyBUZXN0MSQwIgYJKoZIhvcNAQkBFhVqYXJpLmphYXNrZWxhQG91
bHUuZmkwIBcNMjAwNzAzMDkzNTQ0WhgPMjI5NDA0MTcwOTM1NDRaMA8xDTALBgNV
BAMMBHRlc3QwWTATBgcqhkjOPQIBBggqhkjOPQMBBwNCAAQJKOD2dlA+SSmWPT7t
d1K8UOUWw9mIpN9NjCwkVCrfTq5uVl/aJriUZoroM5Fwbn99BS3V3lvzXkxpOari
theRo1owWDAdBgNVHQ4EFgQU2qui3BDy4uxxpI/5Z1tuIHN/+gUwHwYDVR0jBBgw
FoAU7w7HriCjtXYFMuO94QPooGtgfnwwCQYDVR0TBAIwADALBgNVHQ8EBAMCBaAw
DQYJKoZIhvcNAQELBQADggIBAEiShVHOq52Twyi8vVmdFv3bIGw22NgzFP1atOUH
XYzvbVxeNJnj5UsJJQlrM1l9itKeVYLT1cj1AiYaj2LQ9GOlpRdbNr5H5bun7kCG
AGoLZydXPX+Jq9BIbXduVNJQiAV1/GqMQaLUWfbTcnOePo/VOzkzTjoHi6YdcKai
9024pyEVYftaCt8PvgASLedPN7+MBpVHI2y2L3Q1ryDnGqh8Exx6ihl1mPhKAtXH
aHM9bA19Nh6Do3Nzd1jFM+Tv9lF2KlhMoQPZZU7Go9IR3bSZQPX2+bcMT1kbNm1M
xq7hqeTfD5Z4R/e1vcY3S0lxlonD5tQnYToqu3ErrZSX03sJXqfMz42JBNUzkTkP
OBAWZaxtU61DgIsD8NN/YlozGblZFDH0sEH55gTHSGzNj3VebfeNrJm233bUlLZi
95w0ngLbCU8CGvUMP4W6ksXOk9ACkTR2ITTrCn28D+fRUevWfxtstL0FNvjrtcLI
jfIt6Sb/wvrM7l7wsiCT04snS5x32K6ptYavjxcvD+yGtAukW/jKG+0WOfMcFUbg
ZI+Cgq+DOhQoC2JBBwvsCIjau5FzTK3F4O+xcVL4vDq/LUKg9XUPlMTrxke4lQVc
E43VCJWOZlzyN/lk7FCNJAwW5j+MdBJU23ihaGOsG5Yu4/ZjAEM+vKY38FaWL2bq
Dv3s
-----END CERTIFICATE-----
