Certificate:
    Data:
        Version: 3 (0x2)
        Serial Number: 5 (0x5)
    Signature Algorithm: sha256WithRSAEncryption
        Issuer: C=FI, ST=Pohjois-Pohjanmaa, L=Oulu, O=University of Oulu, OU=OUSPG, CN=Secredas Test/emailAddress=jari.jaaskela@oulu.fi
        Validity
            Not Before: Jul  3 09:37:12 2020 GMT
            Not After : Apr 17 09:37:12 2294 GMT
        Subject: CN=test
        Subject Public Key Info:
            Public Key Algorithm: id-ecPublicKey
                Public-Key: (256 bit)
                pub: 
                    04:a1:b6:55:7a:f4:25:97:da:7c:f5:a2:12:1c:6a:
                    cf:0d:94:27:ef:25:47:2b:b9:8c:1b:5d:ca:92:4e:
                    21:ff:c6:a3:47:e2:9b:12:c3:a5:4c:10:be:92:fa:
                    1e:f4:e7:cb:59:09:58:d3:23:99:97:3e:00:79:52:
                    76:59:de:08:b7
                ASN1 OID: prime256v1
                NIST CURVE: P-256
        X509v3 extensions:
            X509v3 Subject Key Identifier: 
                08:81:55:F7:64:BC:51:AA:CA:08:2D:DA:2C:A0:C6:C8:3D:3C:EF:DD
            X509v3 Authority Key Identifier: 
                keyid:EF:0E:C7:AE:20:A3:B5:76:05:32:E3:BD:E1:03:E8:A0:6B:60:7E:7C

            X509v3 Basic Constraints: 
                CA:FALSE
            X509v3 Key Usage: 
                Digital Signature, Key Encipherment
    Signature Algorithm: sha256WithRSAEncryption
         5f:17:b5:5b:2e:b5:57:0f:4e:42:63:67:02:c7:3c:07:95:37:
         c3:9b:c2:51:01:29:f2:54:da:12:30:1b:7d:9e:6c:2d:8f:90:
         75:74:1b:72:9e:c1:9e:ab:1a:4f:74:26:31:42:8f:ed:2e:94:
         a2:34:04:e4:d2:a2:4c:e0:38:ce:04:9a:e1:58:6c:a4:ab:89:
         f6:2e:46:55:1f:8d:7a:fe:6f:b5:5a:f1:eb:ba:e6:95:e8:c9:
         a1:fc:9c:af:09:4f:08:fc:f2:43:e3:60:17:37:8c:09:1f:a5:
         63:e2:b3:4d:13:20:d6:f1:38:91:c8:8a:23:fa:c4:53:b2:5f:
         2a:bb:12:5b:3d:b6:b6:51:a2:83:b0:a8:f8:c7:e6:9c:8a:0b:
         ee:78:53:99:b2:18:7c:9f:4c:11:df:ef:44:f3:a4:b9:92:7b:
         c8:a7:c3:52:9f:41:9d:f1:96:c5:db:3f:a3:4b:ab:55:58:e1:
         12:aa:ba:f1:93:51:af:39:68:8b:78:eb:25:ea:37:b1:ec:e1:
         05:bd:27:0b:1f:86:ba:d7:96:4b:a1:9c:99:b6:60:c8:c8:9d:
         0a:b8:dc:fd:62:53:d2:2c:20:a4:ed:96:b7:b1:0d:29:b5:51:
         d8:71:01:4f:bb:f0:40:78:08:7e:b9:ba:02:bf:4f:dd:41:2a:
         91:32:5a:a3:ff:11:19:59:ca:30:b9:cb:aa:5c:4e:52:ad:e9:
         e3:dd:5d:09:8f:60:c3:0e:42:41:10:1c:37:6d:3b:6d:a5:c9:
         af:67:f6:b3:1c:26:12:e0:e6:4b:7b:01:11:a5:11:7c:27:d4:
         57:d5:cd:27:e7:d7:76:8f:c4:95:d6:02:80:29:ee:fb:04:80:
         23:55:5a:eb:ea:05:65:b8:55:9a:04:05:94:97:47:04:2f:55:
         e6:50:32:68:f9:5f:ee:ae:83:f7:2b:b5:67:51:fe:6a:29:80:
         15:f8:45:13:89:de:2d:79:3b:e3:71:06:7f:f7:48:76:d0:a5:
         cf:fe:18:8e:ba:01:0e:cb:b2:95:f7:89:df:3f:6a:d5:23:fd:
         f2:fb:73:b8:4e:20:8a:d2:2d:d9:b4:94:d7:f7:69:03:5e:07:
         7e:48:79:ca:1a:b2:e4:9e:29:b4:fe:c2:b9:0c:a2:37:bf:62:
         15:60:fb:ef:f6:c3:e3:be:e2:55:13:d0:25:16:42:7c:09:ca:
         16:2f:f5:db:ad:73:24:c1:b7:c9:98:1e:7e:ae:01:e8:35:10:
         49:59:2d:14:3f:e7:93:1f:5d:90:66:aa:2c:2d:6c:d6:ad:9b:
         c6:d9:0a:56:81:b9:30:70:c7:cc:ad:44:8f:5d:a3:5c:25:86:
         f0:54:42:9e:42:c0:84:69
-----BEGIN CERTIFICATE-----
MIIDvzCCAaegAwIBAgIBBTANBgkqhkiG9w0BAQsFADCBozELMAkGA1UEBhMCRkkx
GjAYBgNVBAgMEVBvaGpvaXMtUG9oamFubWFhMQ0wCwYDVQQHDARPdWx1MRswGQYD
VQQKDBJVbml2ZXJzaXR5IG9mIE91bHUxDjAMBgNVBAsMBU9VU1BHMRYwFAYDVQQD
DA1TZWNyZWRhcyBUZXN0MSQwIgYJKoZIhvcNAQkBFhVqYXJpLmphYXNrZWxhQG91
bHUuZmkwIBcNMjAwNzAzMDkzNzEyWhgPMjI5NDA0MTcwOTM3MTJaMA8xDTALBgNV
BAMMBHRlc3QwWTATBgcqhkjOPQIBBggqhkjOPQMBBwNCAAShtlV69CWX2nz1ohIc
as8NlCfvJUcruYwbXcqSTiH/xqNH4psSw6VMEL6S+h7058tZCVjTI5mXPgB5UnZZ
3gi3o1owWDAdBgNVHQ4EFgQUCIFV92S8UarKCC3aLKDGyD08790wHwYDVR0jBBgw
FoAU7w7HriCjtXYFMuO94QPooGtgfnwwCQYDVR0TBAIwADALBgNVHQ8EBAMCBaAw
DQYJKoZIhvcNAQELBQADggIBAF8XtVsutVcPTkJjZwLHPAeVN8ObwlEBKfJU2hIw
G32ebC2PkHV0G3KewZ6rGk90JjFCj+0ulKI0BOTSokzgOM4EmuFYbKSrifYuRlUf
jXr+b7Va8eu65pXoyaH8nK8JTwj88kPjYBc3jAkfpWPis00TINbxOJHIiiP6xFOy
Xyq7Els9trZRooOwqPjH5pyKC+54U5myGHyfTBHf70TzpLmSe8inw1KfQZ3xlsXb
P6NLq1VY4RKquvGTUa85aIt46yXqN7Hs4QW9JwsfhrrXlkuhnJm2YMjInQq43P1i
U9IsIKTtlrexDSm1UdhxAU+78EB4CH65ugK/T91BKpEyWqP/ERlZyjC5y6pcTlKt
6ePdXQmPYMMOQkEQHDdtO22lya9n9rMcJhLg5kt7ARGlEXwn1FfVzSfn13aPxJXW
AoAp7vsEgCNVWuvqBWW4VZoEBZSXRwQvVeZQMmj5X+6ug/crtWdR/mopgBX4RROJ
3i15O+NxBn/3SHbQpc/+GI66AQ7LspX3id8/atUj/fL7c7hOIIrSLdm0lNf3aQNe
B35IecoasuSeKbT+wrkMoje/YhVg++/2w+O+4lUT0CUWQnwJyhYv9dutcyTBt8mY
Hn6uAeg1EElZLRQ/55MfXZBmqiwtbNatm8bZClaBuTBwx8ytRI9do1wlhvBUQp5C
wIRp
-----END CERTIFICATE-----
