Certificate:
    Data:
        Version: 3 (0x2)
        Serial Number: 7 (0x7)
    Signature Algorithm: sha256WithRSAEncryption
        Issuer: C=FI, ST=Maryland, L=Baltimore, O=Test CA, Limited, OU=Server Research Department, CN=Test CA/emailAddress=test@example.com
        Validity
            Not Before: Jul 12 08:35:07 2020 GMT
            Not After : Apr 26 08:35:07 2294 GMT
        Subject: CN=test
        Subject Public Key Info:
            Public Key Algorithm: id-ecPublicKey
                Public-Key: (256 bit)
                pub: 
                    04:69:fa:6b:0c:94:6f:92:e7:09:96:31:a1:4f:ff:
                    dc:47:b7:a9:75:89:d9:b2:ee:a0:3d:1d:1b:47:40:
                    6f:07:d9:a6:e1:68:45:7c:52:a3:d3:c2:19:97:64:
                    e2:9a:f5:43:56:e9:7d:40:4b:43:70:83:ad:b9:bb:
                    b9:c1:76:c3:05
                ASN1 OID: prime256v1
                NIST CURVE: P-256
        X509v3 extensions:
            X509v3 Subject Key Identifier: 
                79:88:E1:F0:6B:F2:03:EA:FA:76:E3:46:6D:E7:B6:98:46:B8:61:9F
            X509v3 Authority Key Identifier: 
                keyid:C5:E3:D3:76:66:01:34:45:6F:7D:1E:0C:DE:F9:14:18:6E:7D:62:88

            X509v3 Basic Constraints: 
                CA:FALSE
            X509v3 Key Usage: 
                Digital Signature, Key Encipherment
    Signature Algorithm: sha256WithRSAEncryption
         45:bd:07:34:27:58:9a:e7:92:90:dc:10:e2:ef:b8:78:90:df:
         7c:e2:19:33:04:19:e3:d4:6b:a9:a5:ac:1a:31:99:07:cc:c7:
         ab:e1:d0:d1:52:1d:b1:5e:f6:d2:0e:f3:93:f8:d5:ba:70:86:
         6e:41:55:20:0e:1d:1f:9e:45:25:c1:99:2e:30:e9:31:42:1f:
         a7:ff:e4:b2:fb:38:17:89:ed:4d:0a:ca:45:80:e8:e0:8d:a0:
         c5:aa:a4:8a:54:43:05:e5:ed:e8:db:53:4e:f5:88:15:10:fd:
         3d:b6:8a:03:e2:ea:90:72:bc:7f:ca:f9:56:a3:e4:f6:30:af:
         7e:02:de:e9:18:14:c9:ab:f2:47:dd:02:5f:53:f2:c0:82:5e:
         14:a7:45:2b:e4:41:61:4d:b3:f0:05:72:01:37:84:e5:f0:2e:
         0d:78:6f:22:c5:7a:bd:a4:1d:73:e5:90:af:e1:90:2b:c9:03:
         d4:ee:93:bd:c6:d1:25:17:ec:f2:26:be:a6:a0:11:17:57:d1:
         2f:f6:e6:e4:5b:46:8e:3a:77:aa:72:26:eb:18:05:02:4a:cc:
         ab:cb:95:5d:11:80:83:6e:e9:40:2f:f9:08:4a:a2:89:e5:87:
         54:2f:a5:75:12:20:c1:75:a5:08:10:07:6a:91:b4:a3:f9:7c:
         42:8a:b1:c3:7d:f1:71:f8:c1:17:f0:45:ff:3f:d9:48:ba:0d:
         8b:76:45:11:0c:02:40:fd:36:49:91:22:49:06:e5:95:93:2d:
         fe:69:3c:49:9a:bf:d0:19:37:8b:ad:90:8e:f2:13:ab:7b:a1:
         39:51:2b:43:1e:ac:4d:7f:d3:01:56:5e:3f:03:02:61:16:33:
         d8:53:b2:4f:c7:b9:22:56:c4:6d:be:c5:1f:d4:21:0b:28:07:
         4d:0f:15:cc:98:1f:c7:22:fd:04:35:17:f8:ee:b2:00:15:36:
         91:84:a3:7b:af:b7:fd:14:d8:05:37:23:66:6f:cf:5e:bb:b5:
         5e:0c:ce:bd:fe:b4:0e:a9:bd:d2:03:50:9e:68:4f:87:b1:26:
         c6:4a:f4:02:3f:27:c5:22:d6:6c:a0:70:ee:96:4e:13:03:69:
         00:f8:bf:b3:33:bd:67:7d:27:46:2d:75:b7:f4:70:63:f5:04:
         59:3b:95:16:68:52:3d:47:b0:fa:43:36:6b:ea:28:e0:70:ac:
         eb:05:e4:9d:d2:1e:eb:e4:0e:1d:ac:4a:5e:68:6f:a6:4f:bb:
         be:0d:1c:cf:7f:56:fc:cb:67:ad:5e:98:07:6f:cd:ad:d8:e2:
         17:49:02:f0:31:d7:d1:e3:ef:09:c4:46:c0:2a:32:59:f4:e0:
         62:39:30:f6:a0:29:76:aa
-----BEGIN CERTIFICATE-----
MIIDwzCCAaugAwIBAgIBBzANBgkqhkiG9w0BAQsFADCBpzELMAkGA1UEBhMCRkkx
ETAPBgNVBAgMCE1hcnlsYW5kMRIwEAYDVQQHDAlCYWx0aW1vcmUxGTAXBgNVBAoM
EFRlc3QgQ0EsIExpbWl0ZWQxIzAhBgNVBAsMGlNlcnZlciBSZXNlYXJjaCBEZXBh
cnRtZW50MRAwDgYDVQQDDAdUZXN0IENBMR8wHQYJKoZIhvcNAQkBFhB0ZXN0QGV4
YW1wbGUuY29tMCAXDTIwMDcxMjA4MzUwN1oYDzIyOTQwNDI2MDgzNTA3WjAPMQ0w
CwYDVQQDDAR0ZXN0MFkwEwYHKoZIzj0CAQYIKoZIzj0DAQcDQgAEafprDJRvkucJ
ljGhT//cR7epdYnZsu6gPR0bR0BvB9mm4WhFfFKj08IZl2TimvVDVul9QEtDcIOt
ubu5wXbDBaNaMFgwHQYDVR0OBBYEFHmI4fBr8gPq+nbjRm3ntphGuGGfMB8GA1Ud
IwQYMBaAFMXj03ZmATRFb30eDN75FBhufWKIMAkGA1UdEwQCMAAwCwYDVR0PBAQD
AgWgMA0GCSqGSIb3DQEBCwUAA4ICAQBFvQc0J1ia55KQ3BDi77h4kN984hkzBBnj
1GuppawaMZkHzMer4dDRUh2xXvbSDvOT+NW6cIZuQVUgDh0fnkUlwZkuMOkxQh+n
/+Sy+zgXie1NCspFgOjgjaDFqqSKVEMF5e3o21NO9YgVEP09tooD4uqQcrx/yvlW
o+T2MK9+At7pGBTJq/JH3QJfU/LAgl4Up0Ur5EFhTbPwBXIBN4Tl8C4NeG8ixXq9
pB1z5ZCv4ZAryQPU7pO9xtElF+zyJr6moBEXV9Ev9ubkW0aOOneqcibrGAUCSsyr
y5VdEYCDbulAL/kISqKJ5YdUL6V1EiDBdaUIEAdqkbSj+XxCirHDffFx+MEX8EX/
P9lIug2LdkURDAJA/TZJkSJJBuWVky3+aTxJmr/QGTeLrZCO8hOre6E5UStDHqxN
f9MBVl4/AwJhFjPYU7JPx7kiVsRtvsUf1CELKAdNDxXMmB/HIv0ENRf47rIAFTaR
hKN7r7f9FNgFNyNmb89eu7VeDM69/rQOqb3SA1CeaE+HsSbGSvQCPyfFItZsoHDu
lk4TA2kA+L+zM71nfSdGLXW39HBj9QRZO5UWaFI9R7D6QzZr6ijgcKzrBeSd0h7r
5A4drEpeaG+mT7u+DRzPf1b8y2etXpgHb82t2OIXSQLwMdfR4+8JxEbAKjJZ9OBi
OTD2oCl2qg==
-----END CERTIFICATE-----
