Certificate:
    Data:
        Version: 3 (0x2)
        Serial Number: 8 (0x8)
    Signature Algorithm: sha256WithRSAEncryption
        Issuer: C=FI, ST=Maryland, L=Baltimore, O=Test CA, Limited, OU=Server Research Department, CN=Test CA/emailAddress=test@example.com
        Validity
            Not Before: Jul 12 08:51:10 2020 GMT
            Not After : Apr 26 08:51:10 2294 GMT
        Subject: CN=test
        Subject Public Key Info:
            Public Key Algorithm: id-ecPublicKey
                Public-Key: (256 bit)
                pub: 
                    04:f0:06:63:da:a6:2d:79:59:11:94:f0:0f:21:7a:
                    14:fb:52:ab:a6:a1:b2:97:c9:cd:04:1c:ac:1d:8b:
                    49:45:83:4d:93:b4:d6:25:43:36:a0:11:0c:84:90:
                    87:c1:3d:57:a4:a5:1f:b1:91:06:25:17:f3:a8:d8:
                    d0:2b:cf:99:eb
                ASN1 OID: prime256v1
                NIST CURVE: P-256
        X509v3 extensions:
            X509v3 Subject Key Identifier: 
                AC:63:44:93:A2:F6:3A:7E:BA:C8:78:E2:2D:1B:BF:78:0B:A0:78:3C
            X509v3 Authority Key Identifier: 
                keyid:C5:E3:D3:76:66:01:34:45:6F:7D:1E:0C:DE:F9:14:18:6E:7D:62:88

            X509v3 Basic Constraints: 
                CA:FALSE
            X509v3 Key Usage: 
                Digital Signature, Key Encipherment
    Signature Algorithm: sha256WithRSAEncryption
         3f:df:de:3f:6d:69:7a:94:a1:be:17:a7:30:b0:54:61:5b:6b:
         01:e0:23:e4:8c:9f:8d:3e:b1:bb:6c:4e:fd:ac:53:95:fd:f7:
         5f:e5:d9:88:ec:47:3d:3a:4b:24:7f:ee:05:15:9f:91:68:e8:
         33:c6:10:14:ee:89:13:64:6b:69:93:52:95:94:a7:84:d8:e3:
         df:9f:af:a7:84:46:a6:c3:4a:e0:38:b9:4a:fa:00:35:5e:64:
         e5:6c:cf:8d:d9:ad:14:4f:ed:00:a2:28:11:10:f0:2f:8f:58:
         ac:fa:4f:fc:30:5f:0f:ae:5c:32:db:01:d2:b9:fd:0e:4c:30:
         97:a3:60:f2:21:4c:c6:74:a3:61:c7:35:32:85:50:25:f7:05:
         83:da:2b:86:67:99:af:1d:2e:67:53:36:32:02:cf:c5:c3:16:
         a9:71:7b:eb:bf:a7:a5:b1:99:81:ae:b0:b5:1b:ca:c4:0b:70:
         45:7a:ee:5c:f7:b2:e3:5b:3b:bf:47:01:2b:4d:d7:af:99:f7:
         ce:8a:76:15:65:8d:21:6b:cd:2e:bc:96:ff:4a:0b:08:43:f9:
         bd:66:04:29:c9:9d:46:0c:31:f1:e5:db:56:4d:93:96:4e:62:
         5d:4f:66:62:a2:80:d4:a8:3c:76:63:48:1d:53:e3:57:60:87:
         be:a3:82:8a:2c:24:ad:20:d0:d2:f3:02:f6:f3:af:64:aa:f5:
         43:05:09:d9:96:34:08:21:e1:65:07:4e:cb:a3:ee:5f:7f:3d:
         8f:11:33:f4:b5:00:20:e8:82:92:ea:e7:dd:57:4c:ba:2e:59:
         f3:58:3f:77:6b:b4:a0:34:9f:2d:40:7a:58:7b:78:18:da:93:
         98:2e:ff:13:d9:1e:62:13:c1:ca:6a:9d:f5:2f:ae:b5:46:2d:
         14:28:09:29:0d:f0:ba:bf:f5:f6:5b:47:49:77:89:f9:0b:8e:
         1b:5f:25:05:c9:8f:6b:b6:a6:89:6d:fb:da:5d:f2:f7:1d:cb:
         a5:17:bf:6b:25:d3:2e:ce:0e:a4:0f:0e:5a:d0:81:ae:18:57:
         a8:ac:e4:93:e8:ed:1d:bb:9f:ed:c1:83:b8:ac:67:c6:61:aa:
         3a:b2:4a:70:8c:8a:f6:81:f6:40:71:56:d0:8f:60:40:6a:2e:
         31:70:f8:23:cf:35:bf:6d:78:1e:40:c7:38:bd:38:8f:50:d3:
         94:75:99:18:d1:23:f1:dd:ba:ca:f3:72:2a:b4:37:2e:83:eb:
         bb:40:df:c1:93:15:b3:6b:60:66:f8:88:a7:b6:18:82:8b:25:
         a9:4a:cc:81:54:b2:e8:86:e9:9d:8c:e7:f4:59:e5:3c:87:15:
         02:43:84:fd:22:85:f9:ef
-----BEGIN CERTIFICATE-----
MIIDwzCCAaugAwIBAgIBCDANBgkqhkiG9w0BAQsFADCBpzELMAkGA1UEBhMCRkkx
ETAPBgNVBAgMCE1hcnlsYW5kMRIwEAYDVQQHDAlCYWx0aW1vcmUxGTAXBgNVBAoM
EFRlc3QgQ0EsIExpbWl0ZWQxIzAhBgNVBAsMGlNlcnZlciBSZXNlYXJjaCBEZXBh
cnRtZW50MRAwDgYDVQQDDAdUZXN0IENBMR8wHQYJKoZIhvcNAQkBFhB0ZXN0QGV4
YW1wbGUuY29tMCAXDTIwMDcxMjA4NTExMFoYDzIyOTQwNDI2MDg1MTEwWjAPMQ0w
CwYDVQQDDAR0ZXN0MFkwEwYHKoZIzj0CAQYIKoZIzj0DAQcDQgAE8AZj2qYteVkR
lPAPIXoU+1KrpqGyl8nNBBysHYtJRYNNk7TWJUM2oBEMhJCHwT1XpKUfsZEGJRfz
qNjQK8+Z66NaMFgwHQYDVR0OBBYEFKxjRJOi9jp+ush44i0bv3gLoHg8MB8GA1Ud
IwQYMBaAFMXj03ZmATRFb30eDN75FBhufWKIMAkGA1UdEwQCMAAwCwYDVR0PBAQD
AgWgMA0GCSqGSIb3DQEBCwUAA4ICAQA/394/bWl6lKG+F6cwsFRhW2sB4CPkjJ+N
PrG7bE79rFOV/fdf5dmI7Ec9Okskf+4FFZ+RaOgzxhAU7okTZGtpk1KVlKeE2OPf
n6+nhEamw0rgOLlK+gA1XmTlbM+N2a0UT+0AoigREPAvj1is+k/8MF8Prlwy2wHS
uf0OTDCXo2DyIUzGdKNhxzUyhVAl9wWD2iuGZ5mvHS5nUzYyAs/FwxapcXvrv6el
sZmBrrC1G8rEC3BFeu5c97LjWzu/RwErTdevmffOinYVZY0ha80uvJb/SgsIQ/m9
ZgQpyZ1GDDHx5dtWTZOWTmJdT2ZiooDUqDx2Y0gdU+NXYIe+o4KKLCStINDS8wL2
869kqvVDBQnZljQIIeFlB07Lo+5ffz2PETP0tQAg6IKS6ufdV0y6LlnzWD93a7Sg
NJ8tQHpYe3gY2pOYLv8T2R5iE8HKap31L661Ri0UKAkpDfC6v/X2W0dJd4n5C44b
XyUFyY9rtqaJbfvaXfL3HculF79rJdMuzg6kDw5a0IGuGFeorOST6O0du5/twYO4
rGfGYao6skpwjIr2gfZAcVbQj2BAai4xcPgjzzW/bXgeQMc4vTiPUNOUdZkY0SPx
3brK83IqtDcug+u7QN/BkxWza2Bm+IinthiCiyWpSsyBVLLohumdjOf0WeU8hxUC
Q4T9IoX57w==
-----END CERTIFICATE-----
