Certificate:
    Data:
        Version: 3 (0x2)
        Serial Number: 9 (0x9)
    Signature Algorithm: sha256WithRSAEncryption
        Issuer: C=FI, ST=Maryland, L=Baltimore, O=Test CA, Limited, OU=Server Research Department, CN=Test CA/emailAddress=test@example.com
        Validity
            Not Before: Jul 12 08:54:44 2020 GMT
            Not After : Apr 26 08:54:44 2294 GMT
        Subject: CN=test
        Subject Public Key Info:
            Public Key Algorithm: id-ecPublicKey
                Public-Key: (256 bit)
                pub: 
                    04:b2:23:c7:8b:bd:60:52:a4:b6:b5:31:ff:a8:b4:
                    a8:c1:97:19:9d:cf:0b:78:53:79:57:91:bb:b1:48:
                    2d:22:80:c0:ae:96:cc:c9:6d:56:b9:e8:84:c8:0e:
                    09:36:32:e8:2f:18:59:90:2f:0f:5e:56:3c:7a:51:
                    a6:5a:62:1c:29
                ASN1 OID: prime256v1
                NIST CURVE: P-256
        X509v3 extensions:
            X509v3 Subject Key Identifier: 
                06:13:CD:15:13:4F:35:C4:44:C0:A6:BE:F9:7C:80:91:D6:1D:5C:B8
            X509v3 Authority Key Identifier: 
                keyid:C5:E3:D3:76:66:01:34:45:6F:7D:1E:0C:DE:F9:14:18:6E:7D:62:88

            X509v3 Basic Constraints: 
                CA:FALSE
            X509v3 Key Usage: 
                Digital Signature, Key Encipherment
    Signature Algorithm: sha256WithRSAEncryption
         51:7c:17:e4:7e:b5:76:8e:30:60:5f:f5:6f:10:02:a7:57:4b:
         fd:f8:40:40:43:03:39:6d:8f:29:9c:52:5d:2f:d3:5b:86:8c:
         5c:8f:b9:82:f3:f8:7b:b0:ec:2e:db:7f:0d:6e:db:61:85:33:
         fa:80:ae:b5:5e:a5:f1:c9:90:32:64:f5:c6:64:33:5d:77:c7:
         08:97:45:bb:aa:2c:62:20:0c:a6:0c:8b:74:df:6c:9f:22:70:
         fc:6a:1d:8a:5c:a2:fa:e4:e7:e9:d6:09:81:2b:a7:44:35:ff:
         cf:39:ca:4a:32:68:6c:2c:65:0e:28:4e:d8:c1:4b:f3:72:60:
         d0:a2:75:b2:c1:4d:bb:b7:59:4a:fb:b7:97:7b:c4:9c:89:a1:
         66:45:00:97:b9:56:a6:87:4d:09:aa:01:e8:a7:e3:d0:ec:cb:
         ee:d0:27:3b:4f:0d:0e:d3:24:d8:41:a2:a3:04:73:8f:5e:a7:
         e0:f9:95:8f:ad:20:eb:98:36:97:ae:d2:2a:df:eb:69:7a:85:
         00:ee:fb:98:5f:b5:38:4c:15:ad:36:e3:48:23:f2:03:d0:8c:
         57:51:59:9e:39:08:94:87:bc:70:70:de:c0:94:b8:49:ed:df:
         07:c1:0c:5d:12:52:17:e2:c5:ba:85:91:47:f6:3e:91:39:c7:
         01:5e:1c:22:e2:b0:cb:74:e7:05:2d:5a:60:f1:a5:60:45:95:
         e6:69:e6:1a:d7:f0:38:dd:b6:b7:75:97:ff:95:5c:35:30:8f:
         8b:0f:62:8e:18:e4:90:e9:4f:a6:fa:fb:25:3c:3b:d0:02:ac:
         83:79:93:a7:74:a3:7f:87:b8:ba:3a:eb:69:09:f1:b0:1f:e3:
         5d:01:92:0c:1e:56:76:51:59:c6:a0:2b:a8:36:f5:e8:ae:71:
         81:b8:59:d4:a5:5b:4c:bb:56:9e:3b:4d:ec:13:01:ab:02:2b:
         30:39:db:16:49:16:0d:9d:bd:ff:ad:72:4d:16:09:7f:b3:8f:
         2a:f2:6d:50:20:eb:a0:15:0f:39:29:65:82:15:5d:0e:b2:eb:
         32:91:2e:9d:3e:17:a3:3c:40:68:0f:53:ad:34:24:ad:38:3e:
         68:24:06:aa:f2:14:6c:4c:7f:d8:36:fb:fa:01:24:5d:c1:0c:
         2e:c1:e9:ee:c7:1d:37:99:10:e8:5a:db:11:ee:12:ae:87:e2:
         f6:c4:fa:23:f4:f0:cb:b4:07:c3:d4:e1:12:d0:df:9c:88:03:
         48:a3:a5:a4:63:f2:38:ad:47:3f:fc:d1:52:b6:cf:99:2b:4e:
         76:09:13:7f:6f:55:04:2d:53:a7:99:f4:00:4a:e2:88:7b:f0:
         8f:e9:a8:2a:36:02:2a:78
-----BEGIN CERTIFICATE-----
MIIDwzCCAaugAwIBAgIBCTANBgkqhkiG9w0BAQsFADCBpzELMAkGA1UEBhMCRkkx
ETAPBgNVBAgMCE1hcnlsYW5kMRIwEAYDVQQHDAlCYWx0aW1vcmUxGTAXBgNVBAoM
EFRlc3QgQ0EsIExpbWl0ZWQxIzAhBgNVBAsMGlNlcnZlciBSZXNlYXJjaCBEZXBh
cnRtZW50MRAwDgYDVQQDDAdUZXN0IENBMR8wHQYJKoZIhvcNAQkBFhB0ZXN0QGV4
YW1wbGUuY29tMCAXDTIwMDcxMjA4NTQ0NFoYDzIyOTQwNDI2MDg1NDQ0WjAPMQ0w
CwYDVQQDDAR0ZXN0MFkwEwYHKoZIzj0CAQYIKoZIzj0DAQcDQgAEsiPHi71gUqS2
tTH/qLSowZcZnc8LeFN5V5G7sUgtIoDArpbMyW1WueiEyA4JNjLoLxhZkC8PXlY8
elGmWmIcKaNaMFgwHQYDVR0OBBYEFAYTzRUTTzXERMCmvvl8gJHWHVy4MB8GA1Ud
IwQYMBaAFMXj03ZmATRFb30eDN75FBhufWKIMAkGA1UdEwQCMAAwCwYDVR0PBAQD
AgWgMA0GCSqGSIb3DQEBCwUAA4ICAQBRfBfkfrV2jjBgX/VvEAKnV0v9+EBAQwM5
bY8pnFJdL9Nbhoxcj7mC8/h7sOwu238NbtthhTP6gK61XqXxyZAyZPXGZDNdd8cI
l0W7qixiIAymDIt032yfInD8ah2KXKL65Ofp1gmBK6dENf/POcpKMmhsLGUOKE7Y
wUvzcmDQonWywU27t1lK+7eXe8SciaFmRQCXuVamh00JqgHop+PQ7Mvu0Cc7Tw0O
0yTYQaKjBHOPXqfg+ZWPrSDrmDaXrtIq3+tpeoUA7vuYX7U4TBWtNuNII/ID0IxX
UVmeOQiUh7xwcN7AlLhJ7d8HwQxdElIX4sW6hZFH9j6ROccBXhwi4rDLdOcFLVpg
8aVgRZXmaeYa1/A43ba3dZf/lVw1MI+LD2KOGOSQ6U+m+vslPDvQAqyDeZOndKN/
h7i6OutpCfGwH+NdAZIMHlZ2UVnGoCuoNvXornGBuFnUpVtMu1aeO03sEwGrAisw
OdsWSRYNnb3/rXJNFgl/s48q8m1QIOugFQ85KWWCFV0OsusykS6dPhejPEBoD1Ot
NCStOD5oJAaq8hRsTH/YNvv6ASRdwQwuwenuxx03mRDoWtsR7hKuh+L2xPoj9PDL
tAfD1OES0N+ciANIo6WkY/I4rUc//NFSts+ZK052CRN/b1UELVOnmfQASuKIe/CP
6agqNgIqeA==
-----END CERTIFICATE-----
