Certificate:
    Data:
        Version: 3 (0x2)
        Serial Number: 10 (0xa)
    Signature Algorithm: sha256WithRSAEncryption
        Issuer: C=FI, ST=Maryland, L=Baltimore, O=Test CA, Limited, OU=Server Research Department, CN=Test CA/emailAddress=test@example.com
        Validity
            Not Before: Jul 12 08:55:07 2020 GMT
            Not After : Apr 26 08:55:07 2294 GMT
        Subject: CN=test
        Subject Public Key Info:
            Public Key Algorithm: id-ecPublicKey
                Public-Key: (256 bit)
                pub: 
                    04:89:65:d3:e6:c4:c4:11:8d:4e:56:e1:4a:2d:10:
                    13:a4:ba:8a:0f:35:fc:fe:4b:e2:ba:08:28:6c:89:
                    20:2f:95:ab:cb:0c:ce:ae:ee:e5:81:77:ce:19:c7:
                    e8:8e:9f:8e:b7:92:2b:c3:2d:32:75:03:1c:ae:3a:
                    8e:dc:27:f0:d9
                ASN1 OID: prime256v1
                NIST CURVE: P-256
        X509v3 extensions:
            X509v3 Subject Key Identifier: 
                71:A1:D8:69:7D:33:9C:94:EF:CF:7A:E0:81:90:80:D7:49:B9:BD:A6
            X509v3 Authority Key Identifier: 
                keyid:C5:E3:D3:76:66:01:34:45:6F:7D:1E:0C:DE:F9:14:18:6E:7D:62:88

            X509v3 Basic Constraints: 
                CA:FALSE
            X509v3 Key Usage: 
                Digital Signature, Key Encipherment
    Signature Algorithm: sha256WithRSAEncryption
         7c:68:bf:ee:35:f3:05:df:2c:c8:28:a4:39:0b:e6:5f:02:90:
         7d:c9:4c:18:00:e5:39:c7:f0:e8:e9:bf:82:be:8c:3e:c9:b1:
         94:f1:d0:b4:59:3b:2d:17:59:45:1a:80:0a:49:52:8e:49:8d:
         10:b6:71:19:40:3f:a4:df:e2:c9:21:17:bd:77:18:4f:49:b2:
         c2:79:70:c0:ac:38:f3:c2:65:e6:c1:c1:85:9a:4e:95:08:2d:
         76:7e:a6:da:c8:34:85:ab:92:f9:b2:1a:0c:ac:fe:4a:68:6f:
         54:25:18:98:43:22:cb:41:8b:ef:20:d7:e2:5f:ab:9a:f1:46:
         5b:a4:41:e7:b0:00:57:5f:a6:9e:6e:93:9a:3e:c3:47:11:c9:
         5c:e1:3c:07:94:f6:78:a3:71:54:a0:f1:d5:24:43:23:1f:84:
         5b:b9:e1:1b:22:0d:08:b6:4e:20:ab:83:df:1f:fb:75:e1:68:
         d2:40:ab:b5:63:84:1e:8d:65:96:a1:b6:ad:4c:42:f2:21:53:
         1f:9a:ec:5a:39:9a:1e:89:01:e4:f5:9f:65:21:c3:35:c2:05:
         72:0f:8b:6e:42:ad:c0:83:c1:f5:5d:18:03:7b:fe:ba:32:13:
         d2:be:eb:9f:94:a3:94:5a:c0:7c:24:0f:93:6e:cc:f9:bf:8a:
         51:55:dc:35:d3:61:01:94:d0:c9:61:a1:03:fd:b4:aa:0c:ec:
         ac:5d:e9:cb:a9:4b:6d:32:f5:e3:7d:27:97:50:7c:0d:b3:05:
         fd:36:ab:99:29:a0:6f:01:84:42:18:b7:e6:a8:c5:34:19:ad:
         91:2e:fb:56:28:f7:f1:80:38:19:73:84:83:81:3e:3a:17:bd:
         a7:c9:d7:04:f6:43:c3:d1:9b:0a:99:00:91:f4:80:b2:e4:d0:
         57:32:ef:39:b1:09:40:0e:4b:76:2c:b2:c5:31:d2:b0:3f:08:
         26:38:b1:20:aa:95:c2:98:d6:d8:5c:49:18:bf:a3:f7:e4:c2:
         01:18:c4:b3:3d:c5:ec:41:0d:7d:43:7b:f7:13:89:49:2e:a6:
         08:aa:18:ec:9c:54:b7:dd:a7:de:50:c4:c1:d6:a9:6c:a5:4e:
         99:bb:8c:9b:45:43:21:fd:2d:f5:b5:1c:22:fd:5a:f3:fd:7e:
         48:2f:76:8d:37:ed:7d:8c:79:5c:ae:f2:fd:4c:8a:ac:13:4b:
         f8:36:81:34:b2:49:64:17:d0:6f:40:cc:c7:13:ed:8c:01:d5:
         82:da:75:a1:60:2c:59:4c:69:4f:5a:a4:0f:17:10:d0:07:2e:
         07:57:f5:65:db:72:4d:bc:57:60:36:63:89:ab:3f:41:d2:98:
         57:ec:fa:d6:62:f8:bb:eb
-----BEGIN CERTIFICATE-----
MIIDwzCCAaugAwIBAgIBCjANBgkqhkiG9w0BAQsFADCBpzELMAkGA1UEBhMCRkkx
ETAPBgNVBAgMCE1hcnlsYW5kMRIwEAYDVQQHDAlCYWx0aW1vcmUxGTAXBgNVBAoM
EFRlc3QgQ0EsIExpbWl0ZWQxIzAhBgNVBAsMGlNlcnZlciBSZXNlYXJjaCBEZXBh
cnRtZW50MRAwDgYDVQQDDAdUZXN0IENBMR8wHQYJKoZIhvcNAQkBFhB0ZXN0QGV4
YW1wbGUuY29tMCAXDTIwMDcxMjA4NTUwN1oYDzIyOTQwNDI2MDg1NTA3WjAPMQ0w
CwYDVQQDDAR0ZXN0MFkwEwYHKoZIzj0CAQYIKoZIzj0DAQcDQgAEiWXT5sTEEY1O
VuFKLRATpLqKDzX8/kviuggobIkgL5WrywzOru7lgXfOGcfojp+Ot5Irwy0ydQMc
rjqO3Cfw2aNaMFgwHQYDVR0OBBYEFHGh2Gl9M5yU78964IGQgNdJub2mMB8GA1Ud
IwQYMBaAFMXj03ZmATRFb30eDN75FBhufWKIMAkGA1UdEwQCMAAwCwYDVR0PBAQD
AgWgMA0GCSqGSIb3DQEBCwUAA4ICAQB8aL/uNfMF3yzIKKQ5C+ZfApB9yUwYAOU5
x/Do6b+Cvow+ybGU8dC0WTstF1lFGoAKSVKOSY0QtnEZQD+k3+LJIRe9dxhPSbLC
eXDArDjzwmXmwcGFmk6VCC12fqbayDSFq5L5shoMrP5KaG9UJRiYQyLLQYvvINfi
X6ua8UZbpEHnsABXX6aebpOaPsNHEclc4TwHlPZ4o3FUoPHVJEMjH4RbueEbIg0I
tk4gq4PfH/t14WjSQKu1Y4QejWWWobatTELyIVMfmuxaOZoeiQHk9Z9lIcM1wgVy
D4tuQq3Ag8H1XRgDe/66MhPSvuuflKOUWsB8JA+Tbsz5v4pRVdw102EBlNDJYaED
/bSqDOysXenLqUttMvXjfSeXUHwNswX9NquZKaBvAYRCGLfmqMU0Ga2RLvtWKPfx
gDgZc4SDgT46F72nydcE9kPD0ZsKmQCR9ICy5NBXMu85sQlADkt2LLLFMdKwPwgm
OLEgqpXCmNbYXEkYv6P35MIBGMSzPcXsQQ19Q3v3E4lJLqYIqhjsnFS33afeUMTB
1qlspU6Zu4ybRUMh/S31tRwi/Vrz/X5IL3aNN+19jHlcrvL9TIqsE0v4NoE0sklk
F9BvQMzHE+2MAdWC2nWhYCxZTGlPWqQPFxDQBy4HV/Vl23JNvFdgNmOJqz9B0phX
7PrWYvi76w==
-----END CERTIFICATE-----
