Certificate:
    Data:
        Version: 3 (0x2)
        Serial Number: 11 (0xb)
    Signature Algorithm: sha256WithRSAEncryption
        Issuer: C=FI, ST=Maryland, L=Baltimore, O=Test CA, Limited, OU=Server Research Department, CN=Test CA/emailAddress=test@example.com
        Validity
            Not Before: Jul 12 09:19:47 2020 GMT
            Not After : Apr 26 09:19:47 2294 GMT
        Subject: CN=test
        Subject Public Key Info:
            Public Key Algorithm: id-ecPublicKey
                Public-Key: (256 bit)
                pub: 
                    04:45:78:23:5f:c7:fa:65:a3:2c:63:b6:3a:59:9e:
                    88:76:db:08:15:94:08:94:57:74:b5:09:b9:81:bc:
                    93:60:ac:cd:98:26:63:2c:c6:be:ea:3b:83:c7:1f:
                    e6:2f:5b:67:5e:69:08:8b:72:1c:26:48:2c:27:ed:
                    32:60:9c:d5:38
                ASN1 OID: prime256v1
                NIST CURVE: P-256
        X509v3 extensions:
            X509v3 Subject Key Identifier: 
                F5:C0:F9:A3:5B:C1:72:94:D3:80:1F:2F:10:E6:8E:DA:73:2F:24:64
            X509v3 Authority Key Identifier: 
                keyid:C5:E3:D3:76:66:01:34:45:6F:7D:1E:0C:DE:F9:14:18:6E:7D:62:88

            X509v3 Basic Constraints: 
                CA:FALSE
            X509v3 Key Usage: 
                Digital Signature, Key Encipherment
    Signature Algorithm: sha256WithRSAEncryption
         bd:8d:d4:1c:d2:0b:65:fe:55:8a:ba:54:28:f9:72:8c:f0:cd:
         4c:9a:fa:53:8d:5c:b5:c2:f3:5e:20:65:c0:9a:bc:d1:9d:a4:
         ce:f8:15:31:1d:b2:22:8d:98:ff:86:cf:54:3e:04:f7:57:de:
         0d:f5:fb:9e:da:70:11:c0:1f:51:f1:9b:22:22:5b:2e:0f:df:
         29:41:cb:4e:eb:f8:59:c3:2e:fe:19:ba:4a:05:20:a8:4e:76:
         c2:21:d6:e6:65:07:52:dd:c2:26:28:12:49:ec:06:17:05:34:
         2e:c3:ec:51:83:17:1b:a4:90:d5:8f:68:bf:5c:17:26:d1:54:
         ca:06:13:5f:0e:4f:0c:1e:23:79:d2:46:cd:33:70:57:67:a0:
         e2:6e:48:37:b5:29:5a:9b:81:3d:43:8e:0c:31:64:20:39:c5:
         e9:64:0d:8a:31:18:c1:65:0d:3a:f3:7a:43:3f:24:ff:21:7b:
         75:1e:80:61:1c:cd:95:bb:a8:04:a7:38:6f:e6:1f:50:c6:44:
         ea:02:17:3d:28:2f:f7:9b:86:99:c7:0a:76:f5:07:08:62:67:
         1f:bf:f7:53:c9:f3:22:25:26:c8:36:f2:99:9f:ca:84:9f:f0:
         86:a4:20:5a:fb:04:92:ae:83:b6:69:49:e5:fa:50:54:d8:dd:
         9c:e2:71:9a:ff:3c:ce:5e:90:0c:a6:45:2b:f7:09:58:fa:61:
         fb:ce:2e:65:03:01:29:7d:39:8a:db:eb:3d:56:07:21:39:8a:
         38:c0:50:61:19:23:12:6a:bb:58:84:6b:b2:0b:0a:50:c6:e0:
         3e:eb:89:c7:ea:f0:92:2d:07:f8:7b:93:78:2e:bd:11:40:78:
         85:ad:b8:35:19:0f:e7:ef:65:26:81:c4:c5:ff:51:ce:56:07:
         68:81:b8:82:bb:f2:4b:0e:bb:87:d6:1c:62:bb:f5:eb:55:77:
         3b:0a:d7:3d:a5:d6:4a:ca:ff:0a:e0:fe:64:bb:70:2c:38:a8:
         8f:c5:62:25:01:18:9f:e1:9c:9f:9f:73:8b:2f:86:93:3d:ab:
         3c:c2:7e:2d:0f:62:a4:fe:4a:29:2b:80:b4:ed:9d:ce:3e:04:
         59:cd:82:15:4e:ab:d6:33:5a:55:a7:84:a9:48:68:0c:48:3a:
         d9:27:8f:1a:81:84:2f:ad:56:eb:a9:8b:a4:68:0d:3d:14:04:
         29:e0:06:f8:67:90:5d:00:bc:f3:bb:1e:f6:eb:9f:42:83:88:
         e9:dc:11:7a:4d:81:dd:19:5d:73:87:e2:3c:57:4d:13:da:09:
         a1:e5:bd:7a:46:03:40:91:c2:9c:2b:c0:27:2c:7a:b3:c0:85:
         31:38:00:60:46:9b:7a:7e
-----BEGIN CERTIFICATE-----
MIIDwzCCAaugAwIBAgIBCzANBgkqhkiG9w0BAQsFADCBpzELMAkGA1UEBhMCRkkx
ETAPBgNVBAgMCE1hcnlsYW5kMRIwEAYDVQQHDAlCYWx0aW1vcmUxGTAXBgNVBAoM
EFRlc3QgQ0EsIExpbWl0ZWQxIzAhBgNVBAsMGlNlcnZlciBSZXNlYXJjaCBEZXBh
cnRtZW50MRAwDgYDVQQDDAdUZXN0IENBMR8wHQYJKoZIhvcNAQkBFhB0ZXN0QGV4
YW1wbGUuY29tMCAXDTIwMDcxMjA5MTk0N1oYDzIyOTQwNDI2MDkxOTQ3WjAPMQ0w
CwYDVQQDDAR0ZXN0MFkwEwYHKoZIzj0CAQYIKoZIzj0DAQcDQgAERXgjX8f6ZaMs
Y7Y6WZ6IdtsIFZQIlFd0tQm5gbyTYKzNmCZjLMa+6juDxx/mL1tnXmkIi3IcJkgs
J+0yYJzVOKNaMFgwHQYDVR0OBBYEFPXA+aNbwXKU04AfLxDmjtpzLyRkMB8GA1Ud
IwQYMBaAFMXj03ZmATRFb30eDN75FBhufWKIMAkGA1UdEwQCMAAwCwYDVR0PBAQD
AgWgMA0GCSqGSIb3DQEBCwUAA4ICAQC9jdQc0gtl/lWKulQo+XKM8M1MmvpTjVy1
wvNeIGXAmrzRnaTO+BUxHbIijZj/hs9UPgT3V94N9fue2nARwB9R8ZsiIlsuD98p
QctO6/hZwy7+GbpKBSCoTnbCIdbmZQdS3cImKBJJ7AYXBTQuw+xRgxcbpJDVj2i/
XBcm0VTKBhNfDk8MHiN50kbNM3BXZ6Dibkg3tSlam4E9Q44MMWQgOcXpZA2KMRjB
ZQ0683pDPyT/IXt1HoBhHM2Vu6gEpzhv5h9QxkTqAhc9KC/3m4aZxwp29QcIYmcf
v/dTyfMiJSbINvKZn8qEn/CGpCBa+wSSroO2aUnl+lBU2N2c4nGa/zzOXpAMpkUr
9wlY+mH7zi5lAwEpfTmK2+s9VgchOYo4wFBhGSMSartYhGuyCwpQxuA+64nH6vCS
LQf4e5N4Lr0RQHiFrbg1GQ/n72UmgcTF/1HOVgdogbiCu/JLDruH1hxiu/XrVXc7
Ctc9pdZKyv8K4P5ku3AsOKiPxWIlARif4Zyfn3OLL4aTPas8wn4tD2Kk/kopK4C0
7Z3OPgRZzYIVTqvWM1pVp4SpSGgMSDrZJ48agYQvrVbrqYukaA09FAQp4Ab4Z5Bd
ALzzux72659Cg4jp3BF6TYHdGV1zh+I8V00T2gmh5b16RgNAkcKcK8AnLHqzwIUx
OABgRpt6fg==
-----END CERTIFICATE-----
