Certificate:
    Data:
        Version: 3 (0x2)
        Serial Number: 12 (0xc)
    Signature Algorithm: sha256WithRSAEncryption
        Issuer: C=FI, ST=Maryland, L=Baltimore, O=Test CA, Limited, OU=Server Research Department, CN=Test CA/emailAddress=test@example.com
        Validity
            Not Before: Jul 12 09:20:08 2020 GMT
            Not After : Apr 26 09:20:08 2294 GMT
        Subject: CN=test
        Subject Public Key Info:
            Public Key Algorithm: id-ecPublicKey
                Public-Key: (256 bit)
                pub: 
                    04:22:25:bb:a2:9c:70:d4:f1:8d:a6:7b:0d:dd:fa:
                    51:d0:e8:9d:76:ad:aa:f1:49:5b:3f:e1:f0:9b:4a:
                    c8:ea:c0:39:6e:91:ea:51:0a:24:c2:16:ca:36:60:
                    3b:08:48:d4:88:dc:15:df:31:57:26:c4:1b:26:a9:
                    8f:57:fa:93:19
                ASN1 OID: prime256v1
                NIST CURVE: P-256
        X509v3 extensions:
            X509v3 Subject Key Identifier: 
                76:C2:34:B3:04:04:DD:FC:77:C3:52:07:62:98:7B:9E:C6:6B:FA:4D
            X509v3 Authority Key Identifier: 
                keyid:C5:E3:D3:76:66:01:34:45:6F:7D:1E:0C:DE:F9:14:18:6E:7D:62:88

            X509v3 Basic Constraints: 
                CA:FALSE
            X509v3 Key Usage: 
                Digital Signature, Key Encipherment
    Signature Algorithm: sha256WithRSAEncryption
         b3:cb:5a:55:9c:2b:72:24:ee:df:95:b2:83:45:98:97:0e:4b:
         54:84:da:c8:e2:a6:ae:95:60:89:ac:f8:39:8d:3c:b8:23:9c:
         66:68:1f:59:b9:20:81:22:f9:fe:19:22:f9:40:8c:be:a9:36:
         e9:1b:c1:f0:e5:ae:e7:e4:94:9f:26:18:e4:b3:32:0a:1d:90:
         25:a5:df:ac:a9:d9:c3:7d:5c:34:71:f9:cb:9a:4c:1a:04:6a:
         47:ad:0f:1e:59:cb:10:63:10:13:4c:13:38:e5:53:0d:80:69:
         25:4f:a2:9a:56:8d:88:e7:0a:0a:0f:66:bd:70:9c:d6:85:aa:
         f9:85:2d:02:91:2a:27:3d:6c:97:2d:ef:8b:35:9d:af:bd:ab:
         af:b3:74:0e:25:c6:7b:1a:cf:8c:f5:c6:d4:2a:49:6b:b9:33:
         8f:68:70:84:15:95:bb:5e:ae:5f:c2:b8:7d:07:9c:b1:6e:1c:
         8f:d4:4a:3d:b8:8a:a0:5a:7c:21:ee:35:3d:ab:aa:1d:52:a3:
         29:66:e3:94:92:0d:fe:b1:d9:b1:6e:56:11:40:ee:59:d1:0d:
         d9:f3:81:6b:3f:a5:1a:48:97:11:46:34:17:96:31:7f:77:77:
         ae:2a:0c:02:0c:ea:b2:23:5e:93:d8:a5:6e:3a:06:0a:26:34:
         82:0b:0d:0f:21:78:ba:77:cf:e5:b5:69:eb:36:b0:a0:4d:41:
         9a:f1:80:2f:7a:26:48:ff:c5:cc:14:0f:d4:af:6c:91:ee:96:
         4c:6d:10:07:2c:7b:62:42:21:c6:fe:38:f0:ed:26:64:ab:97:
         31:91:a7:e5:a0:9b:99:e5:cd:03:ba:6b:be:1b:08:f5:f4:9b:
         fd:21:47:c8:a5:91:74:8e:3b:75:f2:e4:97:03:29:01:d9:8d:
         25:f0:d5:55:ff:6e:ec:77:5a:42:f0:06:b5:7b:dd:99:19:e5:
         0d:51:2d:c4:7c:db:8a:d9:c2:70:8a:82:8a:9e:db:89:42:12:
         52:96:13:27:a5:7c:bc:e8:ea:fe:8d:cb:65:37:e9:77:a2:ff:
         eb:49:49:fb:83:88:0c:b3:a8:d6:63:67:2e:27:2e:04:91:28:
         f1:0c:4a:db:3f:0b:6e:33:41:49:e7:6a:54:0e:49:9b:24:61:
         d2:67:94:e9:28:87:32:1f:69:8c:76:8c:7d:28:bd:5f:c3:b0:
         90:c2:e3:9f:03:a1:9d:6c:eb:3a:59:79:51:a1:18:86:3a:76:
         0f:36:55:0b:52:14:90:99:e6:14:c8:36:44:38:92:4c:56:e1:
         5c:b1:98:85:7f:ef:22:8b:7d:ca:86:30:8c:81:57:c6:b3:8b:
         99:ee:17:c0:81:ac:23:83
-----BEGIN CERTIFICATE-----
MIIDwzCCAaugAwIBAgIBDDANBgkqhkiG9w0BAQsFADCBpzELMAkGA1UEBhMCRkkx
ETAPBgNVBAgMCE1hcnlsYW5kMRIwEAYDVQQHDAlCYWx0aW1vcmUxGTAXBgNVBAoM
EFRlc3QgQ0EsIExpbWl0ZWQxIzAhBgNVBAsMGlNlcnZlciBSZXNlYXJjaCBEZXBh
cnRtZW50MRAwDgYDVQQDDAdUZXN0IENBMR8wHQYJKoZIhvcNAQkBFhB0ZXN0QGV4
YW1wbGUuY29tMCAXDTIwMDcxMjA5MjAwOFoYDzIyOTQwNDI2MDkyMDA4WjAPMQ0w
CwYDVQQDDAR0ZXN0MFkwEwYHKoZIzj0CAQYIKoZIzj0DAQcDQgAEIiW7opxw1PGN
pnsN3fpR0Oiddq2q8UlbP+Hwm0rI6sA5bpHqUQokwhbKNmA7CEjUiNwV3zFXJsQb
JqmPV/qTGaNaMFgwHQYDVR0OBBYEFHbCNLMEBN38d8NSB2KYe57Ga/pNMB8GA1Ud
IwQYMBaAFMXj03ZmATRFb30eDN75FBhufWKIMAkGA1UdEwQCMAAwCwYDVR0PBAQD
AgWgMA0GCSqGSIb3DQEBCwUAA4ICAQCzy1pVnCtyJO7flbKDRZiXDktUhNrI4qau
lWCJrPg5jTy4I5xmaB9ZuSCBIvn+GSL5QIy+qTbpG8Hw5a7n5JSfJhjkszIKHZAl
pd+sqdnDfVw0cfnLmkwaBGpHrQ8eWcsQYxATTBM45VMNgGklT6KaVo2I5woKD2a9
cJzWhar5hS0CkSonPWyXLe+LNZ2vvauvs3QOJcZ7Gs+M9cbUKklruTOPaHCEFZW7
Xq5fwrh9B5yxbhyP1Eo9uIqgWnwh7jU9q6odUqMpZuOUkg3+sdmxblYRQO5Z0Q3Z
84FrP6UaSJcRRjQXljF/d3euKgwCDOqyI16T2KVuOgYKJjSCCw0PIXi6d8/ltWnr
NrCgTUGa8YAveiZI/8XMFA/Ur2yR7pZMbRAHLHtiQiHG/jjw7SZkq5cxkafloJuZ
5c0Dumu+Gwj19Jv9IUfIpZF0jjt18uSXAykB2Y0l8NVV/27sd1pC8Aa1e92ZGeUN
US3EfNuK2cJwioKKntuJQhJSlhMnpXy86Or+jctlN+l3ov/rSUn7g4gMs6jWY2cu
Jy4EkSjxDErbPwtuM0FJ52pUDkmbJGHSZ5TpKIcyH2mMdox9KL1fw7CQwuOfA6Gd
bOs6WXlRoRiGOnYPNlULUhSQmeYUyDZEOJJMVuFcsZiFf+8ii33KhjCMgVfGs4uZ
7hfAgawjgw==
-----END CERTIFICATE-----
