Certificate:
    Data:
        Version: 3 (0x2)
        Serial Number: 13 (0xd)
    Signature Algorithm: sha256WithRSAEncryption
        Issuer: C=FI, ST=Maryland, L=Baltimore, O=Test CA, Limited, OU=Server Research Department, CN=Test CA/emailAddress=test@example.com
        Validity
            Not Before: Jul 12 09:21:17 2020 GMT
            Not After : Apr 26 09:21:17 2294 GMT
        Subject: CN=test
        Subject Public Key Info:
            Public Key Algorithm: id-ecPublicKey
                Public-Key: (256 bit)
                pub: 
                    04:1e:fe:16:94:42:08:dc:2b:4f:dd:27:e7:b6:32:
                    fb:21:70:31:8a:e6:9b:ec:22:f9:c4:d8:3f:cf:d1:
                    46:e8:0d:ca:38:ba:db:f6:24:14:de:f2:74:0d:19:
                    9f:d9:cd:22:b4:83:be:d0:9f:ff:48:fe:2c:5e:2e:
                    6c:45:09:2f:2a
                ASN1 OID: prime256v1
                NIST CURVE: P-256
        X509v3 extensions:
            X509v3 Subject Key Identifier: 
                A3:DB:09:8E:6E:D5:C6:B8:81:8D:FF:77:90:87:83:FD:A2:1B:43:2B
            X509v3 Authority Key Identifier: 
                keyid:C5:E3:D3:76:66:01:34:45:6F:7D:1E:0C:DE:F9:14:18:6E:7D:62:88

            X509v3 Basic Constraints: 
                CA:FALSE
            X509v3 Key Usage: 
                Digital Signature, Key Encipherment
    Signature Algorithm: sha256WithRSAEncryption
         67:31:23:b2:b8:71:42:8e:a7:55:81:b6:37:88:3e:62:29:de:
         eb:da:a0:86:0b:2f:cf:70:c8:98:bb:13:fb:99:1c:86:20:34:
         32:4d:92:b3:de:87:4f:26:75:2b:fa:62:02:53:5c:02:4f:d0:
         c4:ea:9c:ca:b7:dc:1f:f8:f2:71:08:a7:33:b8:12:d7:c3:05:
         a9:1a:a6:72:29:ea:a8:31:4e:65:7f:f9:7a:62:85:d9:18:0f:
         94:32:f0:96:2f:fd:f5:e7:fa:77:cf:9e:63:a1:bc:db:b4:97:
         32:df:e0:79:0e:f8:91:75:06:b6:1c:93:1e:5a:fb:fc:22:2f:
         cd:0a:1b:cf:5a:d6:d4:1b:23:5f:f7:5b:20:de:10:96:ed:d8:
         0a:24:00:87:e9:26:c9:17:6b:79:01:6a:7e:4e:86:dc:10:29:
         de:57:8a:e3:7b:fb:35:29:44:95:9e:f2:31:6d:73:d5:d6:61:
         8f:28:41:80:9a:97:7d:04:14:32:44:61:44:bd:13:83:84:4e:
         f4:07:c7:97:d5:2e:2b:06:94:76:cf:e3:c5:a2:e8:22:6c:1e:
         6b:ec:43:f5:c3:1f:60:ed:c9:59:44:ca:d4:3c:65:08:54:3c:
         25:d0:20:b5:5d:69:8d:20:0e:19:2a:43:d0:a7:04:73:ad:80:
         18:6c:8c:79:b7:66:11:11:58:fa:d7:cc:6a:79:b6:4b:6b:d1:
         73:a2:8a:5c:92:75:f2:29:e7:91:3e:d6:ef:f0:25:4c:27:3d:
         9b:36:1b:b1:25:47:71:b2:a9:85:f4:9f:b3:0b:ba:cb:38:26:
         72:47:12:61:36:b4:7d:8b:5e:f8:cc:ec:27:24:e3:3d:93:1b:
         bc:fc:32:e1:e8:bb:ec:a8:35:02:96:87:ba:01:ac:09:59:86:
         60:06:ef:7b:a7:4b:69:d8:35:0e:8b:ad:aa:8d:6d:78:19:08:
         cf:a3:dd:e8:bc:90:b2:92:c7:85:b5:19:6c:e5:d6:bb:b0:3b:
         87:8b:77:bc:fe:3e:7c:ae:f1:99:5a:2e:e9:f7:8c:85:00:07:
         f3:2e:92:7a:e1:5f:95:a8:25:6f:b2:a4:86:77:a7:c0:6a:68:
         85:42:16:80:36:a4:bb:19:67:df:6d:ba:03:af:e1:2a:95:cc:
         b7:8e:ed:e9:eb:b5:96:28:79:ec:fd:ff:34:e9:9e:3e:99:a1:
         d8:54:2c:e8:5f:4f:3e:d0:a8:d9:c4:a3:0a:f1:d9:19:de:a2:
         44:5b:5c:79:f3:1c:1b:7f:80:ae:a9:a4:ef:b0:3a:c4:20:e1:
         e7:5f:d6:0b:48:90:6a:b4:72:28:dd:86:a9:29:55:a6:3a:e6:
         86:f2:52:81:01:07:c6:38
-----BEGIN CERTIFICATE-----
MIIDwzCCAaugAwIBAgIBDTANBgkqhkiG9w0BAQsFADCBpzELMAkGA1UEBhMCRkkx
ETAPBgNVBAgMCE1hcnlsYW5kMRIwEAYDVQQHDAlCYWx0aW1vcmUxGTAXBgNVBAoM
EFRlc3QgQ0EsIExpbWl0ZWQxIzAhBgNVBAsMGlNlcnZlciBSZXNlYXJjaCBEZXBh
cnRtZW50MRAwDgYDVQQDDAdUZXN0IENBMR8wHQYJKoZIhvcNAQkBFhB0ZXN0QGV4
YW1wbGUuY29tMCAXDTIwMDcxMjA5MjExN1oYDzIyOTQwNDI2MDkyMTE3WjAPMQ0w
CwYDVQQDDAR0ZXN0MFkwEwYHKoZIzj0CAQYIKoZIzj0DAQcDQgAEHv4WlEII3CtP
3SfntjL7IXAxiuab7CL5xNg/z9FG6A3KOLrb9iQU3vJ0DRmf2c0itIO+0J//SP4s
Xi5sRQkvKqNaMFgwHQYDVR0OBBYEFKPbCY5u1ca4gY3/d5CHg/2iG0MrMB8GA1Ud
IwQYMBaAFMXj03ZmATRFb30eDN75FBhufWKIMAkGA1UdEwQCMAAwCwYDVR0PBAQD
AgWgMA0GCSqGSIb3DQEBCwUAA4ICAQBnMSOyuHFCjqdVgbY3iD5iKd7r2qCGCy/P
cMiYuxP7mRyGIDQyTZKz3odPJnUr+mICU1wCT9DE6pzKt9wf+PJxCKczuBLXwwWp
GqZyKeqoMU5lf/l6YoXZGA+UMvCWL/315/p3z55jobzbtJcy3+B5DviRdQa2HJMe
Wvv8Ii/NChvPWtbUGyNf91sg3hCW7dgKJACH6SbJF2t5AWp+TobcECneV4rje/s1
KUSVnvIxbXPV1mGPKEGAmpd9BBQyRGFEvRODhE70B8eX1S4rBpR2z+PFougibB5r
7EP1wx9g7clZRMrUPGUIVDwl0CC1XWmNIA4ZKkPQpwRzrYAYbIx5t2YREVj618xq
ebZLa9FzoopcknXyKeeRPtbv8CVMJz2bNhuxJUdxsqmF9J+zC7rLOCZyRxJhNrR9
i174zOwnJOM9kxu8/DLh6LvsqDUCloe6AawJWYZgBu97p0tp2DUOi62qjW14GQjP
o93ovJCykseFtRls5da7sDuHi3e8/j58rvGZWi7p94yFAAfzLpJ64V+VqCVvsqSG
d6fAamiFQhaANqS7GWffbboDr+Eqlcy3ju3p67WWKHns/f806Z4+maHYVCzoX08+
0KjZxKMK8dkZ3qJEW1x58xwbf4CuqaTvsDrEIOHnX9YLSJBqtHIo3YapKVWmOuaG
8lKBAQfGOA==
-----END CERTIFICATE-----
