Certificate:
    Data:
        Version: 3 (0x2)
        Serial Number: 14 (0xe)
    Signature Algorithm: sha256WithRSAEncryption
        Issuer: C=FI, ST=Maryland, L=Baltimore, O=Test CA, Limited, OU=Server Research Department, CN=Test CA/emailAddress=test@example.com
        Validity
            Not Before: Jul 12 09:25:03 2020 GMT
            Not After : Apr 26 09:25:03 2294 GMT
        Subject: CN=test
        Subject Public Key Info:
            Public Key Algorithm: id-ecPublicKey
                Public-Key: (256 bit)
                pub: 
                    04:d6:f7:8f:1a:fd:66:64:e2:23:d2:0a:6a:7c:28:
                    35:2e:d6:e0:93:1f:23:95:a2:85:88:e7:da:ba:86:
                    75:49:a1:5d:ec:2b:54:46:b0:f3:6f:f6:ae:64:fb:
                    6d:f4:c7:b4:a4:75:43:bf:09:92:e7:58:1b:55:5f:
                    3a:08:cf:9d:5d
                ASN1 OID: prime256v1
                NIST CURVE: P-256
        X509v3 extensions:
            X509v3 Subject Key Identifier: 
                F7:B2:7E:A1:2A:75:80:21:C8:2E:63:CB:E4:58:67:2C:A0:72:27:6E
            X509v3 Authority Key Identifier: 
                keyid:C5:E3:D3:76:66:01:34:45:6F:7D:1E:0C:DE:F9:14:18:6E:7D:62:88

            X509v3 Basic Constraints: 
                CA:FALSE
            X509v3 Key Usage: 
                Digital Signature, Key Encipherment
    Signature Algorithm: sha256WithRSAEncryption
         5f:28:25:3f:71:b6:15:11:d4:82:61:f7:ee:bb:b0:b0:94:0e:
         d6:0f:99:c2:b4:40:70:a4:bf:5b:1b:a8:2e:2c:c6:72:05:35:
         ac:29:69:9b:c7:c4:6b:03:9e:62:1b:25:f5:c2:cd:db:03:18:
         9f:cc:a1:f3:61:14:84:d5:40:3f:a3:1c:4c:09:81:2f:df:cf:
         66:73:e2:38:d7:12:e0:40:0e:f2:b3:7f:e4:13:1f:6f:24:14:
         94:5f:3e:40:eb:c9:2c:0c:95:14:c3:ea:b4:98:f4:88:f2:f9:
         8b:09:e8:f7:87:20:4b:96:85:14:70:42:2a:64:a0:2d:ae:42:
         0a:93:16:2d:5b:f3:da:2d:7a:03:37:b1:95:45:7e:f6:f4:82:
         3e:a6:85:02:84:4a:c0:47:f9:ae:7b:17:20:19:8c:e6:7a:86:
         2c:32:42:6a:55:4b:31:33:34:02:50:1a:a4:cd:02:fb:22:82:
         ed:5a:c7:7e:d9:22:e0:ec:2e:a7:99:1b:0b:02:11:59:ba:56:
         a2:91:5c:38:82:e4:49:43:5d:17:99:4e:7a:80:19:1b:84:c9:
         aa:39:8c:6f:5e:34:43:ba:a6:ef:41:88:f6:d1:02:33:35:00:
         33:3c:09:0d:00:c6:f6:c8:dd:63:3b:cb:27:be:42:65:85:60:
         e4:71:80:2d:0d:b5:05:bf:85:9e:52:eb:c8:a3:3b:c6:37:74:
         cd:36:66:ca:5a:f8:85:73:0e:e1:24:3d:55:52:d0:cd:c0:cf:
         c2:a3:0a:a9:aa:5f:9d:8c:e6:b1:2c:d4:a6:0e:3b:61:b3:83:
         46:a6:34:be:8e:b5:d7:f2:3b:4d:eb:82:41:be:d2:a0:d2:cd:
         6f:2a:31:0a:a1:b7:4e:e1:a1:ab:e9:7d:cf:18:0f:14:18:72:
         54:3b:9d:66:13:dc:ee:bb:8b:79:ad:d5:b9:ba:9b:91:08:a0:
         ad:52:c1:e5:46:b9:71:06:43:03:dc:1a:61:69:4c:1e:d3:3c:
         29:1d:35:81:ba:26:16:68:0a:11:f9:a5:f7:ef:6e:05:eb:b0:
         6d:be:3f:00:dd:04:8d:17:e0:ed:76:e7:a0:2b:d7:00:93:36:
         92:6d:6e:8c:aa:7a:03:23:26:ec:8e:75:71:5a:ff:1e:00:7d:
         a1:53:d2:72:10:5c:ea:b8:92:2e:da:8a:12:2b:57:33:27:7d:
         b0:33:58:cf:92:5d:bc:59:ac:6c:82:84:95:e6:c3:e6:d1:02:
         85:cc:8c:02:8b:b0:2d:d7:ad:03:0d:ca:17:c1:e4:78:55:75:
         02:56:5b:f6:22:c1:d1:7f:63:a6:82:96:63:02:d8:33:99:18:
         34:f7:20:c2:7c:c0:d7:95
-----BEGIN CERTIFICATE-----
MIIDwzCCAaugAwIBAgIBDjANBgkqhkiG9w0BAQsFADCBpzELMAkGA1UEBhMCRkkx
ETAPBgNVBAgMCE1hcnlsYW5kMRIwEAYDVQQHDAlCYWx0aW1vcmUxGTAXBgNVBAoM
EFRlc3QgQ0EsIExpbWl0ZWQxIzAhBgNVBAsMGlNlcnZlciBSZXNlYXJjaCBEZXBh
cnRtZW50MRAwDgYDVQQDDAdUZXN0IENBMR8wHQYJKoZIhvcNAQkBFhB0ZXN0QGV4
YW1wbGUuY29tMCAXDTIwMDcxMjA5MjUwM1oYDzIyOTQwNDI2MDkyNTAzWjAPMQ0w
CwYDVQQDDAR0ZXN0MFkwEwYHKoZIzj0CAQYIKoZIzj0DAQcDQgAE1vePGv1mZOIj
0gpqfCg1Ltbgkx8jlaKFiOfauoZ1SaFd7CtURrDzb/auZPtt9Me0pHVDvwmS51gb
VV86CM+dXaNaMFgwHQYDVR0OBBYEFPeyfqEqdYAhyC5jy+RYZyygciduMB8GA1Ud
IwQYMBaAFMXj03ZmATRFb30eDN75FBhufWKIMAkGA1UdEwQCMAAwCwYDVR0PBAQD
AgWgMA0GCSqGSIb3DQEBCwUAA4ICAQBfKCU/cbYVEdSCYffuu7CwlA7WD5nCtEBw
pL9bG6guLMZyBTWsKWmbx8RrA55iGyX1ws3bAxifzKHzYRSE1UA/oxxMCYEv389m
c+I41xLgQA7ys3/kEx9vJBSUXz5A68ksDJUUw+q0mPSI8vmLCej3hyBLloUUcEIq
ZKAtrkIKkxYtW/PaLXoDN7GVRX729II+poUChErAR/muexcgGYzmeoYsMkJqVUsx
MzQCUBqkzQL7IoLtWsd+2SLg7C6nmRsLAhFZulaikVw4guRJQ10XmU56gBkbhMmq
OYxvXjRDuqbvQYj20QIzNQAzPAkNAMb2yN1jO8snvkJlhWDkcYAtDbUFv4WeUuvI
ozvGN3TNNmbKWviFcw7hJD1VUtDNwM/Cowqpql+djOaxLNSmDjths4NGpjS+jrXX
8jtN64JBvtKg0s1vKjEKobdO4aGr6X3PGA8UGHJUO51mE9zuu4t5rdW5upuRCKCt
UsHlRrlxBkMD3BphaUwe0zwpHTWBuiYWaAoR+aX3724F67Btvj8A3QSNF+Dtdueg
K9cAkzaSbW6MqnoDIybsjnVxWv8eAH2hU9JyEFzquJIu2ooSK1czJ32wM1jPkl28
WaxsgoSV5sPm0QKFzIwCi7At160DDcoXweR4VXUCVlv2IsHRf2OmgpZjAtgzmRg0
9yDCfMDXlQ==
-----END CERTIFICATE-----
